Archive member included because of file (symbol)

/home/nxtOSEK/ecrobot/../ecrobot/libecrobot++.a(Bluetooth.o)
                              build/Robot.o (_ZN7ecrobot9BluetoothC1Ev)
/home/nxtOSEK/ecrobot/../ecrobot/libecrobot++.a(Clock.o)
                              build/utils.o (_ZN7ecrobot5ClockC1Ev)
/home/nxtOSEK/ecrobot/../ecrobot/libecrobot++.a(GyroSensor.o)
                              build/Robot.o (_ZN7ecrobot10GyroSensorC1E6ePortS)
/home/nxtOSEK/ecrobot/../ecrobot/libecrobot++.a(I2c.o)
                              build/Robot.o (_ZN7ecrobot3I2cD2Ev)
/home/nxtOSEK/ecrobot/../ecrobot/libecrobot++.a(Lcd.o)
                              build/Robot.o (_ZN7ecrobot3LcdC1Ev)
/home/nxtOSEK/ecrobot/../ecrobot/libecrobot++.a(LightSensor.o)
                              build/Robot.o (_ZN7ecrobot11LightSensorD1Ev)
/home/nxtOSEK/ecrobot/../ecrobot/libecrobot++.a(Motor.o)
                              build/Robot.o (_ZN7ecrobot5MotorC1E6ePortMb)
/home/nxtOSEK/ecrobot/../ecrobot/libecrobot++.a(Nxt.o)
                              build/Robot.o (_ZN7ecrobot3NxtC1Ev)
/home/nxtOSEK/ecrobot/../ecrobot/libecrobot++.a(SonarSensor.o)
                              build/Robot.o (_ZN7ecrobot11SonarSensorC1E6ePortS)
/home/nxtOSEK/ecrobot/../ecrobot/libecrobot++.a(Speaker.o)
                              build/Robot.o (_ZN7ecrobot7SpeakerC1Ev)
/home/nxtOSEK/ecrobot/../ecrobot/libecrobot++.a(TouchSensor.o)
                              build/Robot.o (_ZN7ecrobot11TouchSensorC1E6ePortS)
/home/nxtOSEK/ecrobot/../ecrobot/libecrobot++.a(BTConnection.o)
                              build/Robot.o (_ZN7ecrobot12BTConnection7connectEPKcS2_)
/home/nxtOSEK/ecrobot/../ecrobot/libecrobot++.a(Daq.o)
                              build/Robot.o (_ZN7ecrobot3DaqC1ERNS_9BluetoothE)
/home/nxtOSEK/ecrobot/../ecrobot/libecrobot++.a(New.o)
                              build/Robot.o (_Znwm)
/home/nxtOSEK/ecrobot/../ecrobot/libecrobot.a(ecrobot_device_hook.o)
                              build/ecrobot.o (ecrobot_device_initialize)
/home/nxtOSEK/ecrobot/../ecrobot/libecrobot.a(ecrobot_interface.o)
                              build/ecrobot_base.o (ecrobot_get_battery_voltage)
/home/nxtOSEK/ecrobot/../ecrobot/libecrobot.a(colorsensor.o)
                              /home/nxtOSEK/ecrobot/../ecrobot/libecrobot.a(ecrobot_interface.o) (colorsensor_init)
/home/nxtOSEK/ecrobot/../ecrobot/libecrobot.a(osek_hook.o)
                              build/kernel/osctl.o (StartupHook)
/home/nxtOSEK/ecrobot/../ecrobot/libecrobot.a(uart.oram)
                              build/config/at91sam7s-gnu/irq.oram (uart_isr_C_0)
/home/nxtOSEK/ecrobot/../ecrobot/libecrobot.a(systick.oram)
                              build/syslib/at91sam7s-gnu/lego_nxt/hw_sys_timer.oram (systick_low_priority_C)
/home/nxtOSEK/ecrobot/../ecrobot/libecrobot.a(byte_fifo.oram)
                              /home/nxtOSEK/ecrobot/../ecrobot/libecrobot.a(uart.oram) (byte_fifo_put)
/home/nxtOSEK/ecrobot/../ecrobot/libecrobot.a(aic.oram)
                              /home/nxtOSEK/ecrobot/../ecrobot/libecrobot.a(uart.oram) (aic_set_vector)
/home/nxtOSEK/ecrobot/../ecrobot/libecrobot.a(udp.oram)
                              build/config/at91sam7s-gnu/irq.oram (udp_isr_C)
/home/nxtOSEK/ecrobot/../ecrobot/libecrobot.a(twi.oram)
                              build/config/at91sam7s-gnu/irq.oram (twi_isr_C)
/home/nxtOSEK/ecrobot/../ecrobot/libecrobot.a(nxt_spi.oram)
                              build/config/at91sam7s-gnu/irq.oram (spi_isr_C)
/home/nxtOSEK/ecrobot/../ecrobot/libecrobot.a(nxt_motors.oram)
                              build/Robot.o (nxt_motor_get_count)
/home/nxtOSEK/ecrobot/../ecrobot/libecrobot.a(data_abort.oram)
                              build/ecrobot_init.o (data_abort_C)
/home/nxtOSEK/ecrobot/../ecrobot/libecrobot.a(display.oram)
                              build/rtoscalls.o (display_update)
/home/nxtOSEK/ecrobot/../ecrobot/libecrobot.a(i2c.oram)
                              build/config/at91sam7s-gnu/irq.oram (i2c_timer_isr_C)
/home/nxtOSEK/ecrobot/../ecrobot/libecrobot.a(sound.oram)
                              /home/nxtOSEK/ecrobot/../ecrobot/libecrobot.a(ecrobot_interface.o) (sound_get_time)
/home/nxtOSEK/ecrobot/../ecrobot/libecrobot.a(bt.oram)
                              build/ecrobot_bluetooth.o (bt_send)
/home/nxtOSEK/ecrobot/../ecrobot/libecrobot.a(nxt_avr.oram)
                              build/ecrobot_base.o (nxt_avr_power_down)
/home/nxtOSEK/ecrobot/../ecrobot/libecrobot.a(sensors.oram)
                              /home/nxtOSEK/ecrobot/../ecrobot/libecrobot++.a(LightSensor.o) (unset_digi0)
/home/nxtOSEK/ecrobot/../ecrobot/libecrobot.a(sensors1.oram)
                              /home/nxtOSEK/ecrobot/../ecrobot/libecrobot.a(colorsensor.o) (sensor_pins)
/home/nxtOSEK/ecrobot/../ecrobot/libecrobot.a(nxt_lcd.oram)
                              /home/nxtOSEK/ecrobot/../ecrobot/libecrobot.a(display.oram) (nxt_lcd_force_update)
/home/nxtOSEK/ecrobot/../ecrobot/libecrobot.a(flash_loader.oram)
                              build/ecrobot_base.o (set_flash_request)
/home/nxtOSEK/ecrobot/../ecrobot/libecrobot.a(interrupts.oram)
                              /home/nxtOSEK/ecrobot/../ecrobot/libecrobot.a(uart.oram) (interrupts_get_and_disable)
/home/nxtOSEK/ecrobot/../ecrobot/libecrobot.a(nxtosek_splash.obmp)
                              build/ecrobot_base.o (nxtosek_splash_bmp_start)
/home/nxtOSEK/ecrobot/../ecrobot/libecrobot.a(ecrobot_usb.o)
                              /home/nxtOSEK/ecrobot/../ecrobot/libecrobot.a(flash_loader.oram) (ecrobot_init_usb)
/home/nxtOSEK/ecrobot/../ecrobot/libecrobot.a(flashprog.oram)
                              /home/nxtOSEK/ecrobot/../ecrobot/libecrobot.a(flash_loader.oram) (flash_write_page)
/home/nxtOSEK/ecrobot/../ecrobot/libnxtway_gs_balancer.a(balancer.o)
                              build/Robot.o (balance_control)
/home/GNUARM/bin/../lib/gcc/arm-elf/4.0.2/../../../../arm-elf/lib/thumb/interwork/libm.a(s_cos.o)
                              build/Navigator.o (cos)
/home/GNUARM/bin/../lib/gcc/arm-elf/4.0.2/../../../../arm-elf/lib/thumb/interwork/libm.a(s_sin.o)
                              build/Navigator.o (sin)
/home/GNUARM/bin/../lib/gcc/arm-elf/4.0.2/../../../../arm-elf/lib/thumb/interwork/libm.a(w_sqrt.o)
                              build/Navigator.o (sqrt)
/home/GNUARM/bin/../lib/gcc/arm-elf/4.0.2/../../../../arm-elf/lib/thumb/interwork/libm.a(e_rem_pio2.o)
                              /home/GNUARM/bin/../lib/gcc/arm-elf/4.0.2/../../../../arm-elf/lib/thumb/interwork/libm.a(s_cos.o) (__ieee754_rem_pio2)
/home/GNUARM/bin/../lib/gcc/arm-elf/4.0.2/../../../../arm-elf/lib/thumb/interwork/libm.a(e_sqrt.o)
                              /home/GNUARM/bin/../lib/gcc/arm-elf/4.0.2/../../../../arm-elf/lib/thumb/interwork/libm.a(w_sqrt.o) (__ieee754_sqrt)
/home/GNUARM/bin/../lib/gcc/arm-elf/4.0.2/../../../../arm-elf/lib/thumb/interwork/libm.a(k_cos.o)
                              /home/GNUARM/bin/../lib/gcc/arm-elf/4.0.2/../../../../arm-elf/lib/thumb/interwork/libm.a(s_cos.o) (__kernel_cos)
/home/GNUARM/bin/../lib/gcc/arm-elf/4.0.2/../../../../arm-elf/lib/thumb/interwork/libm.a(k_rem_pio2.o)
                              /home/GNUARM/bin/../lib/gcc/arm-elf/4.0.2/../../../../arm-elf/lib/thumb/interwork/libm.a(e_rem_pio2.o) (__kernel_rem_pio2)
/home/GNUARM/bin/../lib/gcc/arm-elf/4.0.2/../../../../arm-elf/lib/thumb/interwork/libm.a(k_sin.o)
                              /home/GNUARM/bin/../lib/gcc/arm-elf/4.0.2/../../../../arm-elf/lib/thumb/interwork/libm.a(s_cos.o) (__kernel_sin)
/home/GNUARM/bin/../lib/gcc/arm-elf/4.0.2/../../../../arm-elf/lib/thumb/interwork/libm.a(s_fabs.o)
                              /home/GNUARM/bin/../lib/gcc/arm-elf/4.0.2/../../../../arm-elf/lib/thumb/interwork/libm.a(e_rem_pio2.o) (fabs)
/home/GNUARM/bin/../lib/gcc/arm-elf/4.0.2/../../../../arm-elf/lib/thumb/interwork/libm.a(s_floor.o)
                              /home/GNUARM/bin/../lib/gcc/arm-elf/4.0.2/../../../../arm-elf/lib/thumb/interwork/libm.a(k_rem_pio2.o) (floor)
/home/GNUARM/bin/../lib/gcc/arm-elf/4.0.2/../../../../arm-elf/lib/thumb/interwork/libm.a(s_isnan.o)
                              /home/GNUARM/bin/../lib/gcc/arm-elf/4.0.2/../../../../arm-elf/lib/thumb/interwork/libm.a(w_sqrt.o) (isnan)
/home/GNUARM/bin/../lib/gcc/arm-elf/4.0.2/../../../../arm-elf/lib/thumb/interwork/libm.a(s_lib_ver.o)
                              /home/GNUARM/bin/../lib/gcc/arm-elf/4.0.2/../../../../arm-elf/lib/thumb/interwork/libm.a(w_sqrt.o) (__fdlib_version)
/home/GNUARM/bin/../lib/gcc/arm-elf/4.0.2/../../../../arm-elf/lib/thumb/interwork/libm.a(s_matherr.o)
                              /home/GNUARM/bin/../lib/gcc/arm-elf/4.0.2/../../../../arm-elf/lib/thumb/interwork/libm.a(w_sqrt.o) (matherr)
/home/GNUARM/bin/../lib/gcc/arm-elf/4.0.2/../../../../arm-elf/lib/thumb/interwork/libm.a(s_scalbn.o)
                              /home/GNUARM/bin/../lib/gcc/arm-elf/4.0.2/../../../../arm-elf/lib/thumb/interwork/libm.a(k_rem_pio2.o) (scalbn)
/home/GNUARM/bin/../lib/gcc/arm-elf/4.0.2/../../../../arm-elf/lib/thumb/interwork/libm.a(s_copysign.o)
                              /home/GNUARM/bin/../lib/gcc/arm-elf/4.0.2/../../../../arm-elf/lib/thumb/interwork/libm.a(s_scalbn.o) (copysign)
/home/GNUARM/bin/../lib/gcc/arm-elf/4.0.2/thumb/interwork/libgcc.a(_udivsi3.o)
                              build/ecrobot_base.o (__udivsi3)
/home/GNUARM/bin/../lib/gcc/arm-elf/4.0.2/thumb/interwork/libgcc.a(_divsi3.o)
                              build/Technic.o (__divsi3)
/home/GNUARM/bin/../lib/gcc/arm-elf/4.0.2/thumb/interwork/libgcc.a(_umodsi3.o)
                              /home/nxtOSEK/ecrobot/../ecrobot/libecrobot.a(display.oram) (__umodsi3)
/home/GNUARM/bin/../lib/gcc/arm-elf/4.0.2/thumb/interwork/libgcc.a(_modsi3.o)
                              /home/nxtOSEK/ecrobot/../ecrobot/libecrobot.a(sound.oram) (__modsi3)
/home/GNUARM/bin/../lib/gcc/arm-elf/4.0.2/thumb/interwork/libgcc.a(_dvmd_tls.o)
                              /home/GNUARM/bin/../lib/gcc/arm-elf/4.0.2/thumb/interwork/libgcc.a(_udivsi3.o) (__div0)
/home/GNUARM/bin/../lib/gcc/arm-elf/4.0.2/thumb/interwork/libgcc.a(_addsubdf3.o)
                              build/Navigator.o (__subdf3)
/home/GNUARM/bin/../lib/gcc/arm-elf/4.0.2/thumb/interwork/libgcc.a(_muldivdf3.o)
                              build/Robot.o (__muldf3)
/home/GNUARM/bin/../lib/gcc/arm-elf/4.0.2/thumb/interwork/libgcc.a(_cmpdf2.o)
                              /home/nxtOSEK/ecrobot/../ecrobot/libecrobot.a(colorsensor.o) (__gtdf2)
/home/GNUARM/bin/../lib/gcc/arm-elf/4.0.2/thumb/interwork/libgcc.a(_fixdfsi.o)
                              build/Robot.o (__fixdfsi)
/home/GNUARM/bin/../lib/gcc/arm-elf/4.0.2/thumb/interwork/libgcc.a(_truncdfsf2.o)
                              build/Robot.o (__truncdfsf2)
/home/GNUARM/bin/../lib/gcc/arm-elf/4.0.2/thumb/interwork/libgcc.a(_addsubsf3.o)
                              build/MarkerCheck.o (__subsf3)
/home/GNUARM/bin/../lib/gcc/arm-elf/4.0.2/thumb/interwork/libgcc.a(_muldivsf3.o)
                              build/Robot.o (__mulsf3)
/home/GNUARM/bin/../lib/gcc/arm-elf/4.0.2/thumb/interwork/libgcc.a(_cmpsf2.o)
                              build/Robot.o (__gtsf2)
/home/GNUARM/bin/../lib/gcc/arm-elf/4.0.2/thumb/interwork/libgcc.a(_fixsfsi.o)
                              build/Robot.o (__fixsfsi)
/home/GNUARM/bin/../lib/gcc/arm-elf/4.0.2/thumb/interwork/libgcc.a(_muldi3.o)
                              /home/nxtOSEK/ecrobot/../ecrobot/libecrobot.a(sound.oram) (__muldi3)
/home/GNUARM/bin/../lib/gcc/arm-elf/4.0.2/thumb/interwork/libgcc.a(_divdi3.o)
                              /home/nxtOSEK/ecrobot/../ecrobot/libecrobot.a(sound.oram) (__divdi3)
/home/GNUARM/bin/../lib/gcc/arm-elf/4.0.2/thumb/interwork/libgcc.a(_clz.o)
                              /home/GNUARM/bin/../lib/gcc/arm-elf/4.0.2/thumb/interwork/libgcc.a(_divdi3.o) (__clz_tab)
/home/GNUARM/bin/../lib/gcc/arm-elf/4.0.2/../../../../arm-elf/lib/thumb/interwork/libc.a(errno.o)
                              /home/GNUARM/bin/../lib/gcc/arm-elf/4.0.2/../../../../arm-elf/lib/thumb/interwork/libm.a(w_sqrt.o) (__errno)
/home/GNUARM/bin/../lib/gcc/arm-elf/4.0.2/../../../../arm-elf/lib/thumb/interwork/libc.a(impure.o)
                              /home/GNUARM/bin/../lib/gcc/arm-elf/4.0.2/../../../../arm-elf/lib/thumb/interwork/libc.a(errno.o) (_impure_ptr)
/home/GNUARM/bin/../lib/gcc/arm-elf/4.0.2/../../../../arm-elf/lib/thumb/interwork/libc.a(malloc.o)
                              /home/nxtOSEK/ecrobot/../ecrobot/libecrobot++.a(New.o) (malloc)
/home/GNUARM/bin/../lib/gcc/arm-elf/4.0.2/../../../../arm-elf/lib/thumb/interwork/libc.a(mallocr.o)
                              /home/GNUARM/bin/../lib/gcc/arm-elf/4.0.2/../../../../arm-elf/lib/thumb/interwork/libc.a(malloc.o) (_malloc_r)
/home/GNUARM/bin/../lib/gcc/arm-elf/4.0.2/../../../../arm-elf/lib/thumb/interwork/libc.a(memcpy.o)
                              /home/nxtOSEK/ecrobot/../ecrobot/libecrobot.a(udp.oram) (memcpy)
/home/GNUARM/bin/../lib/gcc/arm-elf/4.0.2/../../../../arm-elf/lib/thumb/interwork/libc.a(memset.o)
                              build/ecrobot_bluetooth.o (memset)
/home/GNUARM/bin/../lib/gcc/arm-elf/4.0.2/../../../../arm-elf/lib/thumb/interwork/libc.a(mlock.o)
                              /home/GNUARM/bin/../lib/gcc/arm-elf/4.0.2/../../../../arm-elf/lib/thumb/interwork/libc.a(mallocr.o) (__malloc_lock)
/home/GNUARM/bin/../lib/gcc/arm-elf/4.0.2/../../../../arm-elf/lib/thumb/interwork/libc.a(strcmp.o)
                              /home/nxtOSEK/ecrobot/../ecrobot/libecrobot.a(flash_loader.oram) (strcmp)
/home/GNUARM/bin/../lib/gcc/arm-elf/4.0.2/../../../../arm-elf/lib/thumb/interwork/libc.a(strcpy.o)
                              build/ecrobot_base.o (strcpy)
/home/GNUARM/bin/../lib/gcc/arm-elf/4.0.2/../../../../arm-elf/lib/thumb/interwork/libc.a(strlen.o)
                              build/ecrobot_base.o (strlen)
/home/GNUARM/bin/../lib/gcc/arm-elf/4.0.2/../../../../arm-elf/lib/thumb/interwork/libc.a(strncpy.o)
                              build/ecrobot_bluetooth.o (strncpy)
/home/GNUARM/bin/../lib/gcc/arm-elf/4.0.2/../../../../arm-elf/lib/thumb/interwork/libc.a(freer.o)
                              /home/GNUARM/bin/../lib/gcc/arm-elf/4.0.2/../../../../arm-elf/lib/thumb/interwork/libc.a(malloc.o) (_free_r)

Allocating common symbols
Common symbol       size              file

tcb_waievt          0x8               build/./kernel_cfg.o
rescb_prevpri       0x1               build/./kernel_cfg.o
almcb_prev          0x1               build/./kernel_cfg.o
callevel            0x1               build/kernel/osctl.o
runtsk              0x1               build/kernel/task.o
tcb_lastres         0x2               build/./kernel_cfg.o
runisr              0x1               build/kernel/interrupt.o
almcb_almval        0x4               build/./kernel_cfg.o
display_x           0x4               /home/nxtOSEK/ecrobot/../ecrobot/libecrobot.a(display.oram)
_errorhook_svcid    0x1               build/kernel/osctl.o
tcxb_pc             0x8               build/./kernel_cfg.o
appmode             0x1               build/kernel/osctl.o
_errorhook_par1     0x4               build/kernel/osctl.o
schedtsk            0x1               build/kernel/task.o
tcb_next            0x2               build/./kernel_cfg.o
tcb_curpri          0x2               build/./kernel_cfg.o
tcb_tstat           0x2               build/./kernel_cfg.o
data_abort_pc       0x4               /home/nxtOSEK/ecrobot/../ecrobot/libecrobot.a(data_abort.oram)
nextpri             0x1               build/kernel/task.o
isrcb_lastres       0x1               build/./kernel_cfg.o
cntcb_almque        0x1               build/./kernel_cfg.o
rescb_prevres       0x1               build/./kernel_cfg.o
tcb_actcnt          0x2               build/./kernel_cfg.o
_errorhook_par3     0x4               build/kernel/osctl.o
tcb_curevt          0x8               build/./kernel_cfg.o
display_y           0x4               /home/nxtOSEK/ecrobot/../ecrobot/libecrobot.a(display.oram)
sus_all_cnt         0x1               build/kernel/interrupt.o
almcb_cycle         0x4               build/./kernel_cfg.o
tcxb_sp             0x8               build/./kernel_cfg.o
uart                0x44              /home/nxtOSEK/ecrobot/../ecrobot/libecrobot.a(uart.oram)
sample              0x31c             /home/nxtOSEK/ecrobot/../ecrobot/libecrobot.a(sound.oram)
almcb_next          0x1               build/./kernel_cfg.o
_errorhook_par2     0x4               build/kernel/osctl.o
cntcb_curval        0x4               build/./kernel_cfg.o

Memory Configuration

Name             Origin             Length             Attributes
header_ram       0x001ffff0         0x00000010
vector_ram       0x00200000         0x00000040
ram              0x00200040         0x0000ffc0
*default*        0x00000000         0xffffffff

Linker script and memory map

LOAD build/kernel/alarm.o
LOAD build/kernel/event.o
LOAD build/kernel/interrupt.o
LOAD build/kernel/osctl.o
LOAD build/kernel/resource.o
LOAD build/kernel/task.o
LOAD build/kernel/task_manage.o
LOAD build/config/at91sam7s-gnu/cpu_config.o
LOAD build/config/at91sam7s-gnu/lego_nxt/sys_config.o
LOAD build/./kernel_cfg.o
LOAD build/rtoscalls.o
LOAD build/syscalls.o
LOAD build/ecrobot_bluetooth.o
LOAD build/ecrobot_base.o
LOAD build/ecrobot.o
LOAD build/balancer_param.o
LOAD build/syslib/at91sam7s-gnu/lego_nxt/hw_sys_timer.oram
LOAD build/utils.o
LOAD build/CourseInfo.o
LOAD build/Robot.o
LOAD build/Navigator.o
LOAD build/Driver.o
LOAD build/Mission.o
LOAD build/PositionEstimation.o
LOAD build/MarkerCheck.o
LOAD build/Technic.o
LOAD build/Vec.o
LOAD build/TechBezierTrace.o
LOAD build/PIDController.o
LOAD build/nxtvm/platform/nxt/vectors.o
LOAD build/config/at91sam7s-gnu/debug.o
LOAD build/config/at91sam7s-gnu/lego_nxt/sys_support.o
LOAD build/nxt_binary_header.o
LOAD build/nxt_entry_point.o
LOAD build/ecrobot_init.o
LOAD build/config/at91sam7s-gnu/cpu_support.oram
LOAD build/config/at91sam7s-gnu/irq.oram
LOAD /home/nxtOSEK/ecrobot/../ecrobot/libecrobot++.a
LOAD /home/nxtOSEK/ecrobot/../ecrobot/libecrobot.a
LOAD /home/nxtOSEK/ecrobot/../ecrobot/libnxtway_gs_balancer.a
LOAD /home/GNUARM/bin/../lib/gcc/arm-elf/4.0.2/../../../../arm-elf/lib/thumb/interwork/libstdc++.a
LOAD /home/GNUARM/bin/../lib/gcc/arm-elf/4.0.2/../../../../arm-elf/lib/thumb/interwork/libm.a
LOAD /home/GNUARM/bin/../lib/gcc/arm-elf/4.0.2/thumb/interwork/libgcc.a
LOAD /home/GNUARM/bin/../lib/gcc/arm-elf/4.0.2/../../../../arm-elf/lib/thumb/interwork/libc.a
LOAD /home/GNUARM/bin/../lib/gcc/arm-elf/4.0.2/thumb/interwork/libgcc.a
                0x00200000                RAM_BASE = 0x200000
                0x00010000                RAM_SIZE = 0x10000

.header         0x001ffff0       0x10
 *nxt_binary_header.o(*.text *.text.*)
 .text          0x001ffff0       0x10 build/nxt_binary_header.o
                0x00200000                . = ALIGN (0x10)

.vectors        0x00200000       0x40
 vectors.o(*.text *.text.*)
 .text          0x00200000       0x38 build/nxtvm/platform/nxt/vectors.o
                0x00200040                . = ALIGN (0x10)
 *fill*         0x00200038        0x8 00
                0x00200000                __vectors_ram_start__ = ADDR (.vectors)
                0x00200040                __vectors_ram_end__ = (ADDR (.vectors) + SIZEOF (.vectors))
                0x00200000                __vectors_load_start__ = LOADADDR (.vectors)
                0x00200040                __vectors_load_end__ = (LOADADDR (.vectors) + SIZEOF (.vectors))

.entry          0x00200040       0x40
 *nxt_entry_point.o(*.text *.text.*)
 .text          0x00200040       0x38 build/nxt_entry_point.o
                0x00200040                NXT_Entry_Point
                0x00200080                . = ALIGN (0x10)
 *fill*         0x00200078        0x8 00

.init           0x00200080      0x280
 *ecrobot_init.o(*.text *.text.*)
 .text          0x00200080      0x280 build/ecrobot_init.o
                0x002001ec                undef_handler
                0x002001f4                prefetch_abort_handler
                0x002001f8                data_abort_handler
                0x002001f0                swi_handler
                0x00200080                start
                0x00200214                reserved_handler
                0x00200300                . = ALIGN (0x10)

.ram_text       0x00200300     0x3850
                0x00200300                . = ALIGN (0x10)
 *.oram(*.text *.text.* *.glue*)
 .text.systick_isr_C1
                0x00200300       0x28 build/syslib/at91sam7s-gnu/lego_nxt/hw_sys_timer.oram
                0x00200300                systick_isr_C1
 *fill*         0x00200328        0x8 00
 .text          0x00200330      0x230 build/config/at91sam7s-gnu/cpu_support.oram
                0x00200510                enable_int
                0x002003b0                start_dispatch
                0x00200370                activate_r
                0x00200508                disable_int
                0x00200330                dispatch
                0x002004dc                int_return
                0x0020046c                _interrupt
                0x002003a0                exit_and_dispatch
                0x00200518                nop
 .text          0x00200560      0x2c0 build/config/at91sam7s-gnu/irq.oram
                0x00200560                default_isr
                0x002006ec                uart_isr_entry_0
                0x0020066c                twi_isr_entry
                0x0020072c                uart_isr_entry_1
                0x0020062c                spi_isr_entry
                0x002005ac                systick_low_priority_entry
                0x0020076c                nxt_motor_isr_entry
                0x002007ac                i2c_timer_isr_entry
                0x00200560                default_fiq
                0x00200564                systick_isr_entry
                0x00200560                spurious_isr
                0x002006ac                sound_isr_entry
                0x002005ec                udp_isr_entry
 .text.uart_process_isr
                0x00200820       0x88 /home/nxtOSEK/ecrobot/../ecrobot/libecrobot.a(uart.oram)
 .text.uart_isr_C_0
                0x002008a8        0xc /home/nxtOSEK/ecrobot/../ecrobot/libecrobot.a(uart.oram)
                0x002008a8                uart_isr_C_0
 .text.uart_isr_C_1
                0x002008b4        0xc /home/nxtOSEK/ecrobot/../ecrobot/libecrobot.a(uart.oram)
                0x002008b4                uart_isr_C_1
 .text.systick_low_priority_C
                0x002008c0       0x1c /home/nxtOSEK/ecrobot/../ecrobot/libecrobot.a(systick.oram)
                0x002008c0                systick_low_priority_C
 .text.systick_isr_C
                0x002008dc       0x24 /home/nxtOSEK/ecrobot/../ecrobot/libecrobot.a(systick.oram)
                0x002008dc                systick_isr_C
 .text.systick_get_ms
                0x00200900        0xc /home/nxtOSEK/ecrobot/../ecrobot/libecrobot.a(systick.oram)
                0x00200900                systick_get_ms
 .text.systick_wait_ms
                0x0020090c       0x1c /home/nxtOSEK/ecrobot/../ecrobot/libecrobot.a(systick.oram)
                0x0020090c                systick_wait_ms
 .text.systick_wait_ns
                0x00200928       0x1c /home/nxtOSEK/ecrobot/../ecrobot/libecrobot.a(systick.oram)
                0x00200928                systick_wait_ns
 .text.systick_init
                0x00200944       0x58 /home/nxtOSEK/ecrobot/../ecrobot/libecrobot.a(systick.oram)
                0x00200944                systick_init
 .text.systick_suspend
                0x0020099c        0xc /home/nxtOSEK/ecrobot/../ecrobot/libecrobot.a(systick.oram)
                0x0020099c                systick_suspend
 .text.systick_resume
                0x002009a8        0xc /home/nxtOSEK/ecrobot/../ecrobot/libecrobot.a(systick.oram)
                0x002009a8                systick_resume
 .text.byte_fifo_put
                0x002009b4       0x58 /home/nxtOSEK/ecrobot/../ecrobot/libecrobot.a(byte_fifo.oram)
                0x002009b4                byte_fifo_put
 .text.byte_fifo_get
                0x00200a0c       0x2c /home/nxtOSEK/ecrobot/../ecrobot/libecrobot.a(byte_fifo.oram)
                0x00200a0c                byte_fifo_get
 .text.aic_initialise
                0x00200a38       0x5c /home/nxtOSEK/ecrobot/../ecrobot/libecrobot.a(aic.oram)
                0x00200a38                aic_initialise
 .text.aic_set_vector
                0x00200a94       0x30 /home/nxtOSEK/ecrobot/../ecrobot/libecrobot.a(aic.oram)
                0x00200a94                aic_set_vector
 .text.aic_mask_on
                0x00200ac4       0x24 /home/nxtOSEK/ecrobot/../ecrobot/libecrobot.a(aic.oram)
                0x00200ac4                aic_mask_on
 .text.aic_mask_off
                0x00200ae8       0x24 /home/nxtOSEK/ecrobot/../ecrobot/libecrobot.a(aic.oram)
                0x00200ae8                aic_mask_off
 .text.aic_clear
                0x00200b0c       0x24 /home/nxtOSEK/ecrobot/../ecrobot/libecrobot.a(aic.oram)
                0x00200b0c                aic_clear
 .text.reset    0x00200b30       0x4c /home/nxtOSEK/ecrobot/../ecrobot/libecrobot.a(udp.oram)
 .text.udp_send_null
                0x00200b7c       0x2c /home/nxtOSEK/ecrobot/../ecrobot/libecrobot.a(udp.oram)
 .text.udp_send_stall
                0x00200ba8       0x2c /home/nxtOSEK/ecrobot/../ecrobot/libecrobot.a(udp.oram)
 .text.udp_send_control
                0x00200bd4       0x60 /home/nxtOSEK/ecrobot/../ecrobot/libecrobot.a(udp.oram)
 .text.udp_isr_C
                0x00200c34      0x7d0 /home/nxtOSEK/ecrobot/../ecrobot/libecrobot.a(udp.oram)
                0x00200c34                udp_isr_C
 .text.twi_status
                0x00201404       0x20 /home/nxtOSEK/ecrobot/../ecrobot/libecrobot.a(twi.oram)
                0x00201404                twi_status
 .text.twi_isr_C
                0x00201424       0xc4 /home/nxtOSEK/ecrobot/../ecrobot/libecrobot.a(twi.oram)
                0x00201424                twi_isr_C
 .text.twi_reset
                0x002014e8       0xb4 /home/nxtOSEK/ecrobot/../ecrobot/libecrobot.a(twi.oram)
                0x002014e8                twi_reset
 .text.twi_init
                0x0020159c       0x4c /home/nxtOSEK/ecrobot/../ecrobot/libecrobot.a(twi.oram)
                0x0020159c                twi_init
 .text.twi_start_read
                0x002015e8       0x60 /home/nxtOSEK/ecrobot/../ecrobot/libecrobot.a(twi.oram)
                0x002015e8                twi_start_read
 .text.twi_start_write
                0x00201648       0x64 /home/nxtOSEK/ecrobot/../ecrobot/libecrobot.a(twi.oram)
                0x00201648                twi_start_write
 .text.spi_set_mode
                0x002016ac       0x40 /home/nxtOSEK/ecrobot/../ecrobot/libecrobot.a(nxt_spi.oram)
 .text.spi_isr_C
                0x002016ec       0x8c /home/nxtOSEK/ecrobot/../ecrobot/libecrobot.a(nxt_spi.oram)
                0x002016ec                spi_isr_C
 .text.nxt_spi_init
                0x00201778      0x12c /home/nxtOSEK/ecrobot/../ecrobot/libecrobot.a(nxt_spi.oram)
                0x00201778                nxt_spi_init
 .text.nxt_spi_write
                0x002018a4       0x44 /home/nxtOSEK/ecrobot/../ecrobot/libecrobot.a(nxt_spi.oram)
                0x002018a4                nxt_spi_write
 .text.nxt_spi_set_display
                0x002018e8       0x10 /home/nxtOSEK/ecrobot/../ecrobot/libecrobot.a(nxt_spi.oram)
                0x002018e8                nxt_spi_set_display
 .text.nxt_spi_refresh
                0x002018f8       0x24 /home/nxtOSEK/ecrobot/../ecrobot/libecrobot.a(nxt_spi.oram)
                0x002018f8                nxt_spi_refresh
 .text.nxt_motor_get_count
                0x0020191c       0x14 /home/nxtOSEK/ecrobot/../ecrobot/libecrobot.a(nxt_motors.oram)
                0x0020191c                nxt_motor_get_count
 .text.nxt_motor_set_count
                0x00201930       0x10 /home/nxtOSEK/ecrobot/../ecrobot/libecrobot.a(nxt_motors.oram)
                0x00201930                nxt_motor_set_count
 .text.nxt_motor_set_speed
                0x00201940       0x34 /home/nxtOSEK/ecrobot/../ecrobot/libecrobot.a(nxt_motors.oram)
                0x00201940                nxt_motor_set_speed
 .text.nxt_motor_1kHz_process
                0x00201974       0x28 /home/nxtOSEK/ecrobot/../ecrobot/libecrobot.a(nxt_motors.oram)
                0x00201974                nxt_motor_1kHz_process
 .text.nxt_motor_quad_decode
                0x0020199c       0x30 /home/nxtOSEK/ecrobot/../ecrobot/libecrobot.a(nxt_motors.oram)
                0x0020199c                nxt_motor_quad_decode
 .text.nxt_motor_isr_C
                0x002019cc       0x88 /home/nxtOSEK/ecrobot/../ecrobot/libecrobot.a(nxt_motors.oram)
                0x002019cc                nxt_motor_isr_C
 .text.nxt_motor_init
                0x00201a54       0x68 /home/nxtOSEK/ecrobot/../ecrobot/libecrobot.a(nxt_motors.oram)
                0x00201a54                nxt_motor_init
 .text.data_abort_C
                0x00201abc       0x7c /home/nxtOSEK/ecrobot/../ecrobot/libecrobot.a(data_abort.oram)
                0x00201abc                data_abort_C
 .text.display_update
                0x00201b38       0x14 /home/nxtOSEK/ecrobot/../ecrobot/libecrobot.a(display.oram)
                0x00201b38                display_update
 .text.display_force_update
                0x00201b4c        0xc /home/nxtOSEK/ecrobot/../ecrobot/libecrobot.a(display.oram)
                0x00201b4c                display_force_update
 .text.display_clear
                0x00201b58       0x24 /home/nxtOSEK/ecrobot/../ecrobot/libecrobot.a(display.oram)
                0x00201b58                display_clear
 .text.display_goto_xy
                0x00201b7c       0x14 /home/nxtOSEK/ecrobot/../ecrobot/libecrobot.a(display.oram)
                0x00201b7c                display_goto_xy
 .text.display_char
                0x00201b90       0x60 /home/nxtOSEK/ecrobot/../ecrobot/libecrobot.a(display.oram)
                0x00201b90                display_char
 .text.display_string
                0x00201bf0       0x3c /home/nxtOSEK/ecrobot/../ecrobot/libecrobot.a(display.oram)
                0x00201bf0                display_string
 .text.display_hex
                0x00201c2c       0x50 /home/nxtOSEK/ecrobot/../ecrobot/libecrobot.a(display.oram)
                0x00201c2c                display_hex
 .text.display_unsigned_worker
                0x00201c7c       0x70 /home/nxtOSEK/ecrobot/../ecrobot/libecrobot.a(display.oram)
 .text.display_unsigned
                0x00201cec        0xc /home/nxtOSEK/ecrobot/../ecrobot/libecrobot.a(display.oram)
                0x00201cec                display_unsigned
 .text.display_int
                0x00201cf8       0x14 /home/nxtOSEK/ecrobot/../ecrobot/libecrobot.a(display.oram)
                0x00201cf8                display_int
 .text.display_bitmap_copy
                0x00201d0c       0x5c /home/nxtOSEK/ecrobot/../ecrobot/libecrobot.a(display.oram)
                0x00201d0c                display_bitmap_copy
 .text.display_init
                0x00201d68       0x50 /home/nxtOSEK/ecrobot/../ecrobot/libecrobot.a(display.oram)
                0x00201d68                display_init
 .text.i2c_timer_isr_C
                0x00201db8      0x314 /home/nxtOSEK/ecrobot/../ecrobot/libecrobot.a(i2c.oram)
                0x00201db8                i2c_timer_isr_C
 .text.i2c_disable
                0x002020cc       0x20 /home/nxtOSEK/ecrobot/../ecrobot/libecrobot.a(i2c.oram)
                0x002020cc                i2c_disable
 .text.i2c_enable
                0x002020ec       0x40 /home/nxtOSEK/ecrobot/../ecrobot/libecrobot.a(i2c.oram)
                0x002020ec                i2c_enable
 .text.i2c_init
                0x0020212c       0xa4 /home/nxtOSEK/ecrobot/../ecrobot/libecrobot.a(i2c.oram)
                0x0020212c                i2c_init
 .text.i2c_busy
                0x002021d0       0x24 /home/nxtOSEK/ecrobot/../ecrobot/libecrobot.a(i2c.oram)
                0x002021d0                i2c_busy
 .text.i2c_start_transaction
                0x002021f4      0x108 /home/nxtOSEK/ecrobot/../ecrobot/libecrobot.a(i2c.oram)
                0x002021f4                i2c_start_transaction
 .text.set_vol  0x002022fc       0xa4 /home/nxtOSEK/ecrobot/../ecrobot/libecrobot.a(sound.oram)
 .text.sound_fill_sample_buffer
                0x002023a0       0xe4 /home/nxtOSEK/ecrobot/../ecrobot/libecrobot.a(sound.oram)
                0x002023a0                sound_fill_sample_buffer
 .text.sound_freq_vol
                0x00202484      0x1e4 /home/nxtOSEK/ecrobot/../ecrobot/libecrobot.a(sound.oram)
                0x00202484                sound_freq_vol
 .text.sound_init
                0x00202668       0xa0 /home/nxtOSEK/ecrobot/../ecrobot/libecrobot.a(sound.oram)
                0x00202668                sound_init
 .text.sound_isr_C
                0x00202708      0x144 /home/nxtOSEK/ecrobot/../ecrobot/libecrobot.a(sound.oram)
                0x00202708                sound_isr_C
 .text.bt_init  0x0020284c      0x1c0 /home/nxtOSEK/ecrobot/../ecrobot/libecrobot.a(bt.oram)
                0x0020284c                bt_init
 .text.bt_send  0x00202a0c       0x5c /home/nxtOSEK/ecrobot/../ecrobot/libecrobot.a(bt.oram)
                0x00202a0c                bt_send
 .text.bt_write
                0x00202a68       0x70 /home/nxtOSEK/ecrobot/../ecrobot/libecrobot.a(bt.oram)
                0x00202a68                bt_write
 .text.bt_pending
                0x00202ad8       0x50 /home/nxtOSEK/ecrobot/../ecrobot/libecrobot.a(bt.oram)
                0x00202ad8                bt_pending
 .text.bt_clear_arm7_cmd
                0x00202b28       0x10 /home/nxtOSEK/ecrobot/../ecrobot/libecrobot.a(bt.oram)
                0x00202b28                bt_clear_arm7_cmd
 .text.bt_set_arm7_cmd
                0x00202b38       0x10 /home/nxtOSEK/ecrobot/../ecrobot/libecrobot.a(bt.oram)
                0x00202b38                bt_set_arm7_cmd
 .text.bt_receive
                0x00202b48      0x160 /home/nxtOSEK/ecrobot/../ecrobot/libecrobot.a(bt.oram)
                0x00202b48                bt_receive
 .text.bt_read  0x00202ca8      0x140 /home/nxtOSEK/ecrobot/../ecrobot/libecrobot.a(bt.oram)
                0x00202ca8                bt_read
 .text.bt_reset
                0x00202de8       0x84 /home/nxtOSEK/ecrobot/../ecrobot/libecrobot.a(bt.oram)
                0x00202de8                bt_reset
 .text.nxt_avr_power_down
                0x00202e6c       0x10 /home/nxtOSEK/ecrobot/../ecrobot/libecrobot.a(nxt_avr.oram)
                0x00202e6c                nxt_avr_power_down
 .text.nxt_avr_link_init
                0x00202e7c       0x20 /home/nxtOSEK/ecrobot/../ecrobot/libecrobot.a(nxt_avr.oram)
                0x00202e7c                nxt_avr_link_init
 .text.nxt_avr_init
                0x00202e9c       0x6c /home/nxtOSEK/ecrobot/../ecrobot/libecrobot.a(nxt_avr.oram)
                0x00202e9c                nxt_avr_init
 .text.nxt_avr_1kHz_update
                0x00202f08      0x1cc /home/nxtOSEK/ecrobot/../ecrobot/libecrobot.a(nxt_avr.oram)
                0x00202f08                nxt_avr_1kHz_update
 .text.buttons_get
                0x002030d4        0xc /home/nxtOSEK/ecrobot/../ecrobot/libecrobot.a(nxt_avr.oram)
                0x002030d4                buttons_get
 .text.battery_voltage
                0x002030e0       0x28 /home/nxtOSEK/ecrobot/../ecrobot/libecrobot.a(nxt_avr.oram)
                0x002030e0                battery_voltage
 .text.sensor_adc
                0x00203108       0x20 /home/nxtOSEK/ecrobot/../ecrobot/libecrobot.a(nxt_avr.oram)
                0x00203108                sensor_adc
 .text.nxt_avr_set_motor
                0x00203128       0x34 /home/nxtOSEK/ecrobot/../ecrobot/libecrobot.a(nxt_avr.oram)
                0x00203128                nxt_avr_set_motor
 .text.nxt_avr_set_input_power
                0x0020315c       0x3c /home/nxtOSEK/ecrobot/../ecrobot/libecrobot.a(nxt_avr.oram)
                0x0020315c                nxt_avr_set_input_power
 .text.unset_digi0
                0x00203198       0x44 /home/nxtOSEK/ecrobot/../ecrobot/libecrobot.a(sensors.oram)
                0x00203198                unset_digi0
 .text.unset_digi1
                0x002031dc       0x44 /home/nxtOSEK/ecrobot/../ecrobot/libecrobot.a(sensors.oram)
                0x002031dc                unset_digi1
 .text.init_sensors
                0x00203220       0x4c /home/nxtOSEK/ecrobot/../ecrobot/libecrobot.a(sensors.oram)
                0x00203220                init_sensors
 .text.set_digi0
                0x0020326c       0x44 /home/nxtOSEK/ecrobot/../ecrobot/libecrobot.a(sensors.oram)
                0x0020326c                set_digi0
 .text.nxt_lcd_command
                0x002032b0       0x18 /home/nxtOSEK/ecrobot/../ecrobot/libecrobot.a(nxt_lcd.oram)
                0x002032b0                nxt_lcd_command
 .text.nxt_lcd_set_col
                0x002032c8       0x24 /home/nxtOSEK/ecrobot/../ecrobot/libecrobot.a(nxt_lcd.oram)
                0x002032c8                nxt_lcd_set_col
 .text.nxt_lcd_set_multiplex_rate
                0x002032ec       0x18 /home/nxtOSEK/ecrobot/../ecrobot/libecrobot.a(nxt_lcd.oram)
                0x002032ec                nxt_lcd_set_multiplex_rate
 .text.nxt_lcd_set_page_address
                0x00203304       0x18 /home/nxtOSEK/ecrobot/../ecrobot/libecrobot.a(nxt_lcd.oram)
                0x00203304                nxt_lcd_set_page_address
 .text.nxt_lcd_set_pot
                0x0020331c       0x1c /home/nxtOSEK/ecrobot/../ecrobot/libecrobot.a(nxt_lcd.oram)
                0x0020331c                nxt_lcd_set_pot
 .text.nxt_lcd_set_ram_address_control
                0x00203338       0x18 /home/nxtOSEK/ecrobot/../ecrobot/libecrobot.a(nxt_lcd.oram)
                0x00203338                nxt_lcd_set_ram_address_control
 .text.nxt_lcd_enable
                0x00203350       0x14 /home/nxtOSEK/ecrobot/../ecrobot/libecrobot.a(nxt_lcd.oram)
                0x00203350                nxt_lcd_enable
 .text.nxt_lcd_set_map_control
                0x00203364       0x18 /home/nxtOSEK/ecrobot/../ecrobot/libecrobot.a(nxt_lcd.oram)
                0x00203364                nxt_lcd_set_map_control
 .text.nxt_lcd_reset
                0x0020337c        0xc /home/nxtOSEK/ecrobot/../ecrobot/libecrobot.a(nxt_lcd.oram)
                0x0020337c                nxt_lcd_reset
 .text.nxt_lcd_set_bias_ratio
                0x00203388       0x18 /home/nxtOSEK/ecrobot/../ecrobot/libecrobot.a(nxt_lcd.oram)
                0x00203388                nxt_lcd_set_bias_ratio
 .text.nxt_lcd_force_update
                0x002033a0       0x30 /home/nxtOSEK/ecrobot/../ecrobot/libecrobot.a(nxt_lcd.oram)
                0x002033a0                nxt_lcd_force_update
 .text.nxt_lcd_update
                0x002033d0        0xc /home/nxtOSEK/ecrobot/../ecrobot/libecrobot.a(nxt_lcd.oram)
                0x002033d0                nxt_lcd_update
 .text.nxt_lcd_power_up
                0x002033dc       0x48 /home/nxtOSEK/ecrobot/../ecrobot/libecrobot.a(nxt_lcd.oram)
                0x002033dc                nxt_lcd_power_up
 .text.nxt_lcd_power_down
                0x00203424        0xc /home/nxtOSEK/ecrobot/../ecrobot/libecrobot.a(nxt_lcd.oram)
                0x00203424                nxt_lcd_power_down
 .text.nxt_lcd_init
                0x00203430       0x18 /home/nxtOSEK/ecrobot/../ecrobot/libecrobot.a(nxt_lcd.oram)
                0x00203430                nxt_lcd_init
 .text.verify_flash_page
                0x00203448       0x34 /home/nxtOSEK/ecrobot/../ecrobot/libecrobot.a(flash_loader.oram)
 .text.set_flash_request
                0x0020347c       0x38 /home/nxtOSEK/ecrobot/../ecrobot/libecrobot.a(flash_loader.oram)
                0x0020347c                set_flash_request
 .text.nxt_device_init
                0x002034b4       0x38 /home/nxtOSEK/ecrobot/../ecrobot/libecrobot.a(flash_loader.oram)
                0x002034b4                nxt_device_init
 .text          0x002034ec       0x68 /home/nxtOSEK/ecrobot/../ecrobot/libecrobot.a(interrupts.oram)
                0x00203544                fiq_enable
                0x002034ec                interrupts_get_and_disable
                0x00203520                fiq_get_and_disable
                0x00203510                interrupts_enable
 .text.flash_write_page
                0x00203554       0xc0 /home/nxtOSEK/ecrobot/../ecrobot/libecrobot.a(flashprog.oram)
                0x00203554                flash_write_page
                0x00203620                . = ALIGN (0x10)
 *fill*         0x00203614        0xc 00
 *.oram(*.rodata *.rodata.*)
 .rodata.ld     0x00203620        0x4 /home/nxtOSEK/ecrobot/../ecrobot/libecrobot.a(udp.oram)
 .rodata.cfd    0x00203624       0x20 /home/nxtOSEK/ecrobot/../ecrobot/libecrobot.a(udp.oram)
 .rodata.dd     0x00203644       0x12 /home/nxtOSEK/ecrobot/../ecrobot/libecrobot.a(udp.oram)
 *fill*         0x00203656        0x2 00
 .rodata.str1.4
                0x00203658       0x22 /home/nxtOSEK/ecrobot/../ecrobot/libecrobot.a(data_abort.oram)
                                 0x24 (size before relaxing)
 .rodata.font   0x0020367a      0x280 /home/nxtOSEK/ecrobot/../ecrobot/libecrobot.a(display.oram)
 *fill*         0x002038fa        0x2 00
 .rodata.str1.4
                0x002038fc       0x76 /home/nxtOSEK/ecrobot/../ecrobot/libecrobot.a(display.oram)
                                 0x78 (size before relaxing)
 *fill*         0x00203972        0x2 00
 .rodata.i2c_pin
                0x00203974       0x20 /home/nxtOSEK/ecrobot/../ecrobot/libecrobot.a(i2c.oram)
 .rodata.i2c_timer_isr_C
                0x00203994       0x38 /home/nxtOSEK/ecrobot/../ecrobot/libecrobot.a(i2c.oram)
 .rodata.logvol
                0x002039cc        0xc /home/nxtOSEK/ecrobot/../ecrobot/libecrobot.a(sound.oram)
                0x002039cc                logvol
 .rodata.silence
                0x002039d8       0x40 /home/nxtOSEK/ecrobot/../ecrobot/libecrobot.a(sound.oram)
                0x002039d8                silence
 .rodata.sine   0x00203a18       0x10 /home/nxtOSEK/ecrobot/../ecrobot/libecrobot.a(sound.oram)
                0x00203a18                sine
 .rodata.sample_pattern
                0x00203a28       0x84 /home/nxtOSEK/ecrobot/../ecrobot/libecrobot.a(sound.oram)
                0x00203a28                sample_pattern
 .rodata        0x00203aac        0xc /home/nxtOSEK/ecrobot/../ecrobot/libecrobot.a(sound.oram)
 .rodata.avr_brainwash_string
                0x00203ab8       0x30 /home/nxtOSEK/ecrobot/../ecrobot/libecrobot.a(nxt_avr.oram)
                0x00203ab8                avr_brainwash_string
 .rodata.nxt_avr_1kHz_update
                0x00203ae8       0x14 /home/nxtOSEK/ecrobot/../ecrobot/libecrobot.a(nxt_avr.oram)
 .rodata.C.33.1823
                0x00203afc       0x10 /home/nxtOSEK/ecrobot/../ecrobot/libecrobot.a(sensors.oram)
 .rodata.C.37.1857
                0x00203b0c       0x10 /home/nxtOSEK/ecrobot/../ecrobot/libecrobot.a(sensors.oram)
 .rodata.C.31.1806
                0x00203b1c       0x10 /home/nxtOSEK/ecrobot/../ecrobot/libecrobot.a(sensors.oram)
 .rodata.str1.4
                0x00203b2c       0x23 /home/nxtOSEK/ecrobot/../ecrobot/libecrobot.a(flash_loader.oram)
                                 0x24 (size before relaxing)
                0x00203b50                . = ALIGN (0x10)
 *fill*         0x00203b4f        0x1 00
                0x00200300                __ramtext_ram_start__ = ADDR (.ram_text)
                0x00203b50                __ramtext_ram_end__ = (ADDR (.ram_text) + SIZEOF (.ram_text))
                0x00200300                __ramtext_load_start__ = LOADADDR (.ram_text)
                0x00203b50                __ramtext_load_end__ = (__ramtext_load_start__ + SIZEOF (.ram_text))

.wav_data       0x00203b50        0x0
 *.owav(*.data *.data.*)
                0x00203b50                . = ALIGN (0x10)

.bmp_data       0x00203b50      0x440
 *.obmp(*.data *.data.*)
 .data          0x00203b50      0x43e /home/nxtOSEK/ecrobot/../ecrobot/libecrobot.a(nxtosek_splash.obmp)
                0x00203b50                nxtosek_splash_bmp_start
                0x00203f8e                nxtosek_splash_bmp_end
                0x00203f90                . = ALIGN (0x10)
 *fill*         0x00203f8e        0x2 00

.spr_data       0x00203f90        0x0
 *.ospr(*.data *.data.*)
                0x00203f90                . = ALIGN (0x10)

.data           0x00203f90      0x8c0
 *(*.data *.data.*)
 .data.bt_status
                0x00203f90        0x1 build/ecrobot_bluetooth.o
 *fill*         0x00203f91        0x3 00
 .data.K_THETADOT
                0x00203f94        0x4 build/balancer_param.o
                0x00203f94                K_THETADOT
 .data.K_PHIDOT
                0x00203f98        0x4 build/balancer_param.o
                0x00203f98                K_PHIDOT
 .data.K_I      0x00203f9c        0x4 build/balancer_param.o
                0x00203f9c                K_I
 .data.K_F      0x00203fa0       0x10 build/balancer_param.o
                0x00203fa0                K_F
 .data.A_R      0x00203fb0        0x4 build/balancer_param.o
                0x00203fb0                A_R
 .data.A_D      0x00203fb4        0x4 build/balancer_param.o
                0x00203fb4                A_D
 .data.notes    0x00203fb8       0x1a build/Driver.o
                0x00203fb8                notes
 *fill*         0x00203fd2        0x2 00
 .data.pid_light_param
                0x00203fd4        0xc build/PIDController.o
                0x00203fd4                pid_light_param
 .data.deviceStatus
                0x00203fe0        0x1 /home/nxtOSEK/ecrobot/../ecrobot/libecrobot.a(ecrobot_interface.o)
 .data.named    0x00203fe1       0x22 /home/nxtOSEK/ecrobot/../ecrobot/libecrobot.a(udp.oram)
 .data.snd      0x00204003       0x1a /home/nxtOSEK/ecrobot/../ecrobot/libecrobot.a(udp.oram)
 *fill*         0x0020401d        0x3 00
 .data.configured
                0x00204020        0x4 /home/nxtOSEK/ecrobot/../ecrobot/libecrobot.a(udp.oram)
 .data.mode     0x00204024        0x1 /home/nxtOSEK/ecrobot/../ecrobot/libecrobot.a(nxt_spi.oram)
                0x00204024                mode
 *fill*         0x00204025        0x3 00
 .bss.data      0x00204028        0x4 /home/nxtOSEK/ecrobot/../ecrobot/libecrobot.a(nxt_spi.oram)
                0x00204028                data
 .data.display_auto_update
                0x0020402c        0x4 /home/nxtOSEK/ecrobot/../ecrobot/libecrobot.a(display.oram)
                0x0020402c                display_auto_update
 .data.display_buffer
                0x00204030        0x4 /home/nxtOSEK/ecrobot/../ecrobot/libecrobot.a(display.oram)
 .data          0x00204034      0x404 /home/GNUARM/bin/../lib/gcc/arm-elf/4.0.2/../../../../arm-elf/lib/thumb/interwork/libc.a(impure.o)
                0x00204434                _impure_ptr
 .data          0x00204438      0x410 /home/GNUARM/bin/../lib/gcc/arm-elf/4.0.2/../../../../arm-elf/lib/thumb/interwork/libc.a(mallocr.o)
                0x00204438                __malloc_sbrk_base
                0x00204440                __malloc_av_
                0x0020443c                __malloc_trim_threshold
                0x00204850                . = ALIGN (0x10)
 *fill*         0x00204848        0x8 00
                0x00203f90                __data_ram_start__ = ADDR (.data)
                0x00204850                __data_ram_end__ = (ADDR (.data) + SIZEOF (.data))
                0x00203f90                __data_load_start__ = LOADADDR (.data)
                0x00204850                __data_load_end__ = (__data_load_start__ + SIZEOF (.data))

.text           0x00204850     0x8950
                0x00204850                . = ALIGN (0x10)
 *(*.text *.text.* *.glue*)
 .text.enqueue_alarm
                0x00204850       0x90 build/kernel/alarm.o
 .text.alarm_initialize
                0x002048e0       0x98 build/kernel/alarm.o
                0x002048e0                alarm_initialize
 .text.SetRelAlarm
                0x00204978       0xe8 build/kernel/alarm.o
                0x00204978                SetRelAlarm
 .text.CancelAlarm
                0x00204a60       0x9c build/kernel/alarm.o
                0x00204a60                CancelAlarm
 .text.SignalCounter
                0x00204afc      0x134 build/kernel/alarm.o
                0x00204afc                SignalCounter
 .text.SetEvent
                0x00204c30       0xac build/kernel/event.o
                0x00204c30                SetEvent
 .text.ClearEvent
                0x00204cdc       0x64 build/kernel/event.o
                0x00204cdc                ClearEvent
 .text.WaitEvent
                0x00204d40       0xa8 build/kernel/event.o
                0x00204d40                WaitEvent
 .text.StartOS  0x00204de8       0x58 build/kernel/osctl.o
                0x00204de8                StartOS
 .text.ShutdownOS
                0x00204e40       0x4c build/kernel/osctl.o
                0x00204e40                ShutdownOS
 .text.call_pretaskhook
                0x00204e8c       0x24 build/kernel/osctl.o
                0x00204e8c                call_pretaskhook
 .text.call_errorhook
                0x00204eb0       0x78 build/kernel/osctl.o
                0x00204eb0                call_errorhook
 .text.call_posttaskhook
                0x00204f28       0x24 build/kernel/osctl.o
                0x00204f28                call_posttaskhook
 .text.resource_initialize
                0x00204f4c       0x2c build/kernel/resource.o
                0x00204f4c                resource_initialize
 .text.search_schedtsk
                0x00204f78       0x94 build/kernel/task.o
                0x00204f78                search_schedtsk
 .text.make_runnable
                0x0020500c       0xac build/kernel/task.o
                0x0020500c                make_runnable
 .text.make_active
                0x002050b8       0x78 build/kernel/task.o
                0x002050b8                make_active
 .text.task_initialize
                0x00205130       0x90 build/kernel/task.o
                0x00205130                task_initialize
 .text.TerminateTask
                0x002051c0       0x74 build/kernel/task_manage.o
                0x002051c0                TerminateTask
 .text.GetTaskID
                0x00205234       0x40 build/kernel/task_manage.o
                0x00205234                GetTaskID
 .text.cpu_initialize
                0x00205274        0x4 build/config/at91sam7s-gnu/cpu_config.o
                0x00205274                cpu_initialize
 .text.cpu_terminate
                0x00205278        0x4 build/config/at91sam7s-gnu/cpu_config.o
                0x00205278                cpu_terminate
 .text.sys_initialize
                0x0020527c        0x4 build/config/at91sam7s-gnu/lego_nxt/sys_config.o
                0x0020527c                sys_initialize
 .text.sys_exit
                0x00205280        0x4 build/config/at91sam7s-gnu/lego_nxt/sys_config.o
                0x00205280                sys_exit
 .text._setevent_alarm_Alarm4msec
                0x00205284       0x10 build/./kernel_cfg.o
 .text.object_initialize
                0x00205294       0x14 build/./kernel_cfg.o
                0x00205294                object_initialize
 .text.SleeperMonitor
                0x002052a8       0x84 build/rtoscalls.o
                0x002052a8                SleeperMonitor
 .text.SleepI2C
                0x0020532c       0x50 build/rtoscalls.o
                0x0020532c                SleepI2C
 .text.Sleep    0x0020537c       0x60 build/rtoscalls.o
                0x0020537c                Sleep
 .text.AssertDeviceConstructor
                0x002053dc       0x2c build/rtoscalls.o
                0x002053dc                AssertDeviceConstructor
 .text._sbrk_r  0x00205408       0x1c build/syscalls.o
                0x00205408                _sbrk_r
 .text.ecrobot_get_bt_status
                0x00205424       0x10 build/ecrobot_bluetooth.o
                0x00205424                ecrobot_get_bt_status
 .text.close_bt_stream
                0x00205434       0x2c build/ecrobot_bluetooth.o
 .text.ecrobot_send_bt_packet
                0x00205460       0x54 build/ecrobot_bluetooth.o
                0x00205460                ecrobot_send_bt_packet
 .text.ecrobot_read_bt
                0x002054b4       0x24 build/ecrobot_bluetooth.o
                0x002054b4                ecrobot_read_bt
 .text.send_bt_command
                0x002054d8       0x40 build/ecrobot_bluetooth.o
 .text.ecrobot_term_bt_connection
                0x00205518       0x48 build/ecrobot_bluetooth.o
                0x00205518                ecrobot_term_bt_connection
 .text.ecrobot_set_bt_device_name
                0x00205560       0x4c build/ecrobot_bluetooth.o
                0x00205560                ecrobot_set_bt_device_name
 .text.read_bt_command
                0x002055ac       0x5c build/ecrobot_bluetooth.o
 .text.open_bt_stream
                0x00205608       0x50 build/ecrobot_bluetooth.o
 .text.ecrobot_get_bt_device_name
                0x00205658       0x74 build/ecrobot_bluetooth.o
                0x00205658                ecrobot_get_bt_device_name
 .text.ecrobot_get_bt_device_address
                0x002056cc       0x6c build/ecrobot_bluetooth.o
                0x002056cc                ecrobot_get_bt_device_address
 .text.ecrobot_init_bt_slave
                0x00205738      0x12c build/ecrobot_bluetooth.o
                0x00205738                ecrobot_init_bt_slave
 .text.init_OS_flag
                0x00205864        0xc build/ecrobot_base.o
                0x00205864                init_OS_flag
 .text.set_OS_flag
                0x00205870        0xc build/ecrobot_base.o
                0x00205870                set_OS_flag
 .text.get_OS_flag
                0x0020587c        0xc build/ecrobot_base.o
                0x0020587c                get_OS_flag
 .text.cpp_constructor
                0x00205888       0x28 build/ecrobot_base.o
                0x00205888                cpp_constructor
 .text.cpp_destructor
                0x002058b0       0x28 build/ecrobot_base.o
                0x002058b0                cpp_destructor
 .text.execution_mode
                0x002058d8       0x24 build/ecrobot_base.o
                0x002058d8                execution_mode
 .text.show_main_screen
                0x002058fc       0x48 build/ecrobot_base.o
                0x002058fc                show_main_screen
 .text.display_status_bar
                0x00205944       0x5c build/ecrobot_base.o
                0x00205944                display_status_bar
 .text.restart_NXT
                0x002059a0       0x2c build/ecrobot_base.o
                0x002059a0                restart_NXT
 .text.shutdown_NXT
                0x002059cc       0x2c build/ecrobot_base.o
                0x002059cc                shutdown_NXT
 .text.check_NXT_buttons
                0x002059f8       0x38 build/ecrobot_base.o
                0x002059f8                check_NXT_buttons
 .text.show_bd_addr
                0x00205a30       0x44 build/ecrobot_base.o
                0x00205a30                show_bd_addr
 .text.show_bd_addr_err
                0x00205a74       0x3c build/ecrobot_base.o
                0x00205a74                show_bd_addr_err
 .text.add_status_info
                0x00205ab0       0x68 build/ecrobot_base.o
                0x00205ab0                add_status_info
 .text.show_splash_screen
                0x00205b18       0x90 build/ecrobot_base.o
                0x00205b18                show_splash_screen
 .text.main     0x00205ba8      0x10c build/ecrobot.o
                0x00205ba8                main
 .text._Z10Sleep_msecm
                0x00205cb4       0x14 build/utils.o
                0x00205cb4                _Z10Sleep_msecm
 .text._Z41__static_initialization_and_destruction_0ii
                0x00205cc8       0x20 build/utils.o
 .text._GLOBAL__I_clock
                0x00205ce8       0x14 build/utils.o
 .text._ZN10CourseInfo11getStartPosERdS0_S0_
                0x00205cfc       0x20 build/CourseInfo.o
                0x00205cfc                _ZN10CourseInfo11getStartPosERdS0_S0_
 .text._ZN5Robot14ClearObserversEv
                0x00205d1c       0x18 build/Robot.o
                0x00205d1c                _ZN5Robot14ClearObserversEv
 .text._ZN5Robot10CallNotifyENS_10RobotEventE
                0x00205d34       0x2c build/Robot.o
                0x00205d34                _ZN5Robot10CallNotifyENS_10RobotEventE
 .text._ZN5Robot16CheckTouchSensorEv
                0x00205d60       0x28 build/Robot.o
                0x00205d60                _ZN5Robot16CheckTouchSensorEv
 .text._ZN5Robot16CheckSonarSensorEv
                0x00205d88       0x28 build/Robot.o
                0x00205d88                _ZN5Robot16CheckSonarSensorEv
 .text._ZN5Robot16CheckRemoteStartEv
                0x00205db0       0x8c build/Robot.o
                0x00205db0                _ZN5Robot16CheckRemoteStartEv
 .text._ZN5Robot9BTConnectEv
                0x00205e3c       0x30 build/Robot.o
                0x00205e3c                _ZN5Robot9BTConnectEv
 .text._ZN5Robot11AddObserverEPP13RobotObserverj
                0x00205e6c       0x34 build/Robot.o
                0x00205e6c                _ZN5Robot11AddObserverEPP13RobotObserverj
 .text._ZN5Robot11TailControlER8RobotCmd
                0x00205ea0       0x70 build/Robot.o
                0x00205ea0                _ZN5Robot11TailControlER8RobotCmd
 .text._ZN5Robot7calcPWMEN7ecrobot7VectorTIsEE
                0x00205f10       0xbc build/Robot.o
                0x00205f10                _ZN5Robot7calcPWMEN7ecrobot7VectorTIsEE
 .text._ZN5Robot5DriveE8RobotCmd
                0x00205fcc       0xa0 build/Robot.o
                0x00205fcc                _ZN5Robot5DriveE8RobotCmd
 .text._ZN5Robot15CheckGyroSensorEv
                0x0020606c       0x6c build/Robot.o
                0x0020606c                _ZN5Robot15CheckGyroSensorEv
 .text._ZN5Robot16CheckLightSensorEv
                0x002060d8       0x80 build/Robot.o
                0x002060d8                _ZN5Robot16CheckLightSensorEv
 .text._ZN5Robot6BTSendE8RobotCmd9RobotInfo7NavInfo
                0x00206158       0xc8 build/Robot.o
                0x00206158                _ZN5Robot6BTSendE8RobotCmd9RobotInfo7NavInfo
 .text._ZN5Robot7GetInfoEv
                0x00206220       0x48 build/Robot.o
                0x00206220                _ZN5Robot7GetInfoEv
 .text._ZN5Robot7ProcessEv
                0x00206268       0x98 build/Robot.o
                0x00206268                _ZN5Robot7ProcessEv
 .text._Z41__static_initialization_and_destruction_0ii
                0x00206300       0xfc build/Robot.o
 .text._GLOBAL__D_touch
                0x002063fc       0x14 build/Robot.o
 .text._GLOBAL__I_touch
                0x00206410       0x14 build/Robot.o
 .text._ZN5Robot4StopEv
                0x00206424       0x48 build/Robot.o
                0x00206424                _ZN5Robot4StopEv
 .text._ZN5RobotC1Ev
                0x0020646c       0x84 build/Robot.o
                0x0020646c                _ZN5RobotC1Ev
 .text._ZN5Robot8InstanceEv
                0x002064f0       0x24 build/Robot.o
                0x002064f0                _ZN5Robot8InstanceEv
 .text._ZN5Robot11CalibrationEv
                0x00206514       0xa0 build/Robot.o
                0x00206514                _ZN5Robot11CalibrationEv
 .text.TaskMainTaskRobot
                0x002065b4       0x14 build/Robot.o
                0x002065b4                TaskMainTaskRobot
 .text._ZN9Navigator4InitEv
                0x002065c8       0x3c build/Navigator.o
                0x002065c8                _ZN9Navigator4InitEv
 .text._ZN9NavigatorC1Ev
                0x00206604        0xc build/Navigator.o
                0x00206604                _ZN9NavigatorC1Ev
 .text._ZN9Navigator8InstanceEv
                0x00206610       0x24 build/Navigator.o
                0x00206610                _ZN9Navigator8InstanceEv
 .text._ZN9Navigator9GetNowPosEv
                0x00206634       0x14 build/Navigator.o
                0x00206634                _ZN9Navigator9GetNowPosEv
 .text._ZN9Navigator17CalcDirCorrectionEv
                0x00206648      0x1d8 build/Navigator.o
                0x00206648                _ZN9Navigator17CalcDirCorrectionEv
 .text._ZN9Navigator7GetInfoERK9RobotInfo
                0x00206820       0x84 build/Navigator.o
                0x00206820                _ZN9Navigator7GetInfoERK9RobotInfo
 .text.user_1ms_isr_type2
                0x002068a4       0x20 build/Driver.o
                0x002068a4                user_1ms_isr_type2
 .text._ZN6Driver12ClearMissionEv
                0x002068c4       0x34 build/Driver.o
                0x002068c4                _ZN6Driver12ClearMissionEv
 .text._ZN6Driver14ClearEventFlagEv
                0x002068f8       0x10 build/Driver.o
                0x002068f8                _ZN6Driver14ClearEventFlagEv
 .text._ZN6Driver10AddMissionEPP7Missionj
                0x00206908       0x34 build/Driver.o
                0x00206908                _ZN6Driver10AddMissionEPP7Missionj
 .text._ZN6Driver12SetEventFlagEN5Robot10RobotEventE
                0x0020693c        0xc build/Driver.o
                0x0020693c                _ZN6Driver12SetEventFlagEN5Robot10RobotEventE
 .text._ZN6Driver6NotifyEN5Robot10RobotEventE
                0x00206948        0xc build/Driver.o
                0x00206948                _ZN6Driver6NotifyEN5Robot10RobotEventE
 .text._ZN6Driver15is_SetEventFlagEN5Robot10RobotEventE
                0x00206954        0x8 build/Driver.o
                0x00206954                _ZN6Driver15is_SetEventFlagEN5Robot10RobotEventE
 .text._ZN6Driver16state_bt_connectEv
                0x0020695c       0x24 build/Driver.o
                0x0020695c                _ZN6Driver16state_bt_connectEv
 .text._ZN6DriverD0Ev
                0x00206980       0x14 build/Driver.o
                0x00206980                _ZN6DriverD0Ev
 .text._ZN6Driver13state_drivingEv
                0x00206994      0x2a4 build/Driver.o
                0x00206994                _ZN6Driver13state_drivingEv
 .text._ZN6Driver23state_self_introductionEv
                0x00206c38       0xa4 build/Driver.o
                0x00206c38                _ZN6Driver23state_self_introductionEv
 .text._ZN6Driver17state_calibrationEv
                0x00206cdc      0x1a4 build/Driver.o
                0x00206cdc                _ZN6Driver17state_calibrationEv
 .text._ZN6Driver16state_wait_startEv
                0x00206e80      0x194 build/Driver.o
                0x00206e80                _ZN6Driver16state_wait_startEv
 .text._ZN6Driver7ProcessEv
                0x00207014       0xbc build/Driver.o
                0x00207014                _ZN6Driver7ProcessEv
 .text._ZN6DriverC1Ev
                0x002070d0       0x4c build/Driver.o
                0x002070d0                _ZN6DriverC1Ev
 .text._ZN6Driver8InstanceEv
                0x0020711c       0x24 build/Driver.o
                0x0020711c                _ZN6Driver8InstanceEv
 .text._ZN6DriverD1Ev
                0x00207140        0xc build/Driver.o
                0x00207140                _ZN6DriverD1Ev
 .text.TaskMainTaskDrive
                0x0020714c      0x3ec build/Driver.o
                0x0020714c                TaskMainTaskDrive
 .text._ZN7MissionC2Ev
                0x00207538       0x10 build/Mission.o
                0x00207538                _ZN7MissionC2Ev
 .text._ZN7MissionD2Ev
                0x00207548        0xc build/Mission.o
                0x00207548                _ZN7MissionD2Ev
 .text._ZN7MissionD1Ev
                0x00207554        0xc build/Mission.o
                0x00207554                _ZN7MissionD1Ev
 .text._ZN7MissionD0Ev
                0x00207560       0x14 build/Mission.o
                0x00207560                _ZN7MissionD0Ev
 .text._ZN7Mission4InitE9RobotInfo7NavInfo
                0x00207574        0xc build/Mission.o
                0x00207574                _ZN7Mission4InitE9RobotInfo7NavInfo
 .text._ZN7Mission3RunE9RobotInfo7NavInfo9EventFlagR8RobotCmd
                0x00207580       0x18 build/Mission.o
                0x00207580                _ZN7Mission3RunE9RobotInfo7NavInfo9EventFlagR8RobotCmd
 .text._ZN7Mission4NameEv
                0x00207598        0x8 build/Mission.o
                0x00207598                _ZN7Mission4NameEv
 .text._Z21getPositionEstimationRK9_PositionllddRS_
                0x002075a0      0x17c build/PositionEstimation.o
                0x002075a0                _Z21getPositionEstimationRK9_PositionllddRS_
 .text._ZN11MarkerCheck11is_straightEv
                0x0020771c       0x7c build/MarkerCheck.o
                0x0020771c                _ZN11MarkerCheck11is_straightEv
 .text._ZN11MarkerCheck8IsMarkerEs
                0x00207798       0x9c build/MarkerCheck.o
                0x00207798                _ZN11MarkerCheck8IsMarkerEs
 .text._ZN11TecPIDTraceC1Ev
                0x00207834       0x20 build/Technic.o
                0x00207834                _ZN11TecPIDTraceC1Ev
 .text._ZN8TecMusic9note2freqEh
                0x00207854       0xac build/Technic.o
                0x00207854                _ZN8TecMusic9note2freqEh
 .text._ZN8TecMusic6PlayerEv
                0x00207900       0xa4 build/Technic.o
                0x00207900                _ZN8TecMusic6PlayerEv
 .text._ZN11TecPIDTrace8CalclateEssN7Technic9DIRECTIONE
                0x002079a4      0x114 build/Technic.o
                0x002079a4                _ZN11TecPIDTrace8CalclateEssN7Technic9DIRECTIONE
 .text._ZN8TecMusic8InstanceEv
                0x00207ab8       0x20 build/Technic.o
                0x00207ab8                _ZN8TecMusic8InstanceEv
 .text._Z17pid_calc_rotationffffffPf
                0x00207ad8       0x60 build/PIDController.o
                0x00207ad8                _Z17pid_calc_rotationffffffPf
 .text._Z17pid_calc_rotationP8PIDParamfffPf
                0x00207b38       0x28 build/PIDController.o
                0x00207b38                _Z17pid_calc_rotationP8PIDParamfffPf
 .text._ZN7ecrobot9BluetoothC1Ev
                0x00207b60       0x18 /home/nxtOSEK/ecrobot/../ecrobot/libecrobot++.a(Bluetooth.o)
                0x00207b60                _ZN7ecrobot9BluetoothC1Ev
 .text._ZN7ecrobot9Bluetooth17waitForConnectionEPKcm
                0x00207b78       0x4c /home/nxtOSEK/ecrobot/../ecrobot/libecrobot++.a(Bluetooth.o)
                0x00207b78                _ZN7ecrobot9Bluetooth17waitForConnectionEPKcm
 .text._ZN7ecrobot9Bluetooth23cancelWaitForConnectionEv
                0x00207bc4        0x8 /home/nxtOSEK/ecrobot/../ecrobot/libecrobot++.a(Bluetooth.o)
                0x00207bc4                _ZN7ecrobot9Bluetooth23cancelWaitForConnectionEv
 .text._ZNK7ecrobot9Bluetooth16getDeviceAddressEPh
                0x00207bcc       0x14 /home/nxtOSEK/ecrobot/../ecrobot/libecrobot++.a(Bluetooth.o)
                0x00207bcc                _ZNK7ecrobot9Bluetooth16getDeviceAddressEPh
 .text._ZNK7ecrobot9Bluetooth15getFriendlyNameEPc
                0x00207be0       0x14 /home/nxtOSEK/ecrobot/../ecrobot/libecrobot++.a(Bluetooth.o)
                0x00207be0                _ZNK7ecrobot9Bluetooth15getFriendlyNameEPc
 .text._ZN7ecrobot9Bluetooth15setFriendlyNameEPKc
                0x00207bf4       0x14 /home/nxtOSEK/ecrobot/../ecrobot/libecrobot++.a(Bluetooth.o)
                0x00207bf4                _ZN7ecrobot9Bluetooth15setFriendlyNameEPKc
 .text._ZNK7ecrobot9Bluetooth11isConnectedEv
                0x00207c08        0x4 /home/nxtOSEK/ecrobot/../ecrobot/libecrobot++.a(Bluetooth.o)
                0x00207c08                _ZNK7ecrobot9Bluetooth11isConnectedEv
 .text._ZN7ecrobot9Bluetooth4sendEPhm
                0x00207c0c       0x10 /home/nxtOSEK/ecrobot/../ecrobot/libecrobot++.a(Bluetooth.o)
                0x00207c0c                _ZN7ecrobot9Bluetooth4sendEPhm
 .text._ZNK7ecrobot9Bluetooth7receiveEPvmm
                0x00207c1c       0x10 /home/nxtOSEK/ecrobot/../ecrobot/libecrobot++.a(Bluetooth.o)
                0x00207c1c                _ZNK7ecrobot9Bluetooth7receiveEPvmm
 .text._ZN7ecrobot9Bluetooth5closeEv
                0x00207c2c       0x14 /home/nxtOSEK/ecrobot/../ecrobot/libecrobot++.a(Bluetooth.o)
                0x00207c2c                _ZN7ecrobot9Bluetooth5closeEv
 .text._ZN7ecrobot9BluetoothD1Ev
                0x00207c40        0xc /home/nxtOSEK/ecrobot/../ecrobot/libecrobot++.a(Bluetooth.o)
                0x00207c40                _ZN7ecrobot9BluetoothD1Ev
 .text._ZN7ecrobot5ClockC1Ev
                0x00207c4c       0x10 /home/nxtOSEK/ecrobot/../ecrobot/libecrobot++.a(Clock.o)
                0x00207c4c                _ZN7ecrobot5ClockC1Ev
 .text._ZNK7ecrobot5Clock3nowEv
                0x00207c5c       0x14 /home/nxtOSEK/ecrobot/../ecrobot/libecrobot++.a(Clock.o)
                0x00207c5c                _ZNK7ecrobot5Clock3nowEv
 .text._ZN7ecrobot5Clock5sleepEm
                0x00207c70       0x10 /home/nxtOSEK/ecrobot/../ecrobot/libecrobot++.a(Clock.o)
                0x00207c70                _ZN7ecrobot5Clock5sleepEm
 .text._ZN7ecrobot10GyroSensorC1E6ePortS
                0x00207c80       0x38 /home/nxtOSEK/ecrobot/../ecrobot/libecrobot++.a(GyroSensor.o)
                0x00207c80                _ZN7ecrobot10GyroSensorC1E6ePortS
 .text._ZN7ecrobot3I2cC2E6ePortS6ePower
                0x00207cb8       0x30 /home/nxtOSEK/ecrobot/../ecrobot/libecrobot++.a(I2c.o)
                0x00207cb8                _ZN7ecrobot3I2cC2E6ePortS6ePower
 .text._ZN7ecrobot3I2cD2Ev
                0x00207ce8       0x20 /home/nxtOSEK/ecrobot/../ecrobot/libecrobot++.a(I2c.o)
                0x00207ce8                _ZN7ecrobot3I2cD2Ev
 .text._ZN7ecrobot3I2cD1Ev
                0x00207d08       0x20 /home/nxtOSEK/ecrobot/../ecrobot/libecrobot++.a(I2c.o)
                0x00207d08                _ZN7ecrobot3I2cD1Ev
 .text._ZN7ecrobot3I2cD0Ev
                0x00207d28       0x28 /home/nxtOSEK/ecrobot/../ecrobot/libecrobot++.a(I2c.o)
                0x00207d28                _ZN7ecrobot3I2cD0Ev
 .text._ZNK7ecrobot3I2c7receiveEmPhm
                0x00207d50       0x40 /home/nxtOSEK/ecrobot/../ecrobot/libecrobot++.a(I2c.o)
                0x00207d50                _ZNK7ecrobot3I2c7receiveEmPhm
 .text._ZN7ecrobot3LcdC1Ev
                0x00207d90        0x8 /home/nxtOSEK/ecrobot/../ecrobot/libecrobot++.a(Lcd.o)
                0x00207d90                _ZN7ecrobot3LcdC1Ev
 .text._ZN7ecrobot3Lcd5clearEb
                0x00207d98       0x20 /home/nxtOSEK/ecrobot/../ecrobot/libecrobot++.a(Lcd.o)
                0x00207d98                _ZN7ecrobot3Lcd5clearEb
 .text._ZN7ecrobot3Lcd6cursorEmm
                0x00207db8       0x20 /home/nxtOSEK/ecrobot/../ecrobot/libecrobot++.a(Lcd.o)
                0x00207db8                _ZN7ecrobot3Lcd6cursorEmm
 .text._ZN7ecrobot3Lcd4putfEPKcz
                0x00207dd8       0x98 /home/nxtOSEK/ecrobot/../ecrobot/libecrobot++.a(Lcd.o)
                0x00207dd8                _ZN7ecrobot3Lcd4putfEPKcz
 .text._ZN7ecrobot3Lcd4dispEv
                0x00207e70        0xc /home/nxtOSEK/ecrobot/../ecrobot/libecrobot++.a(Lcd.o)
                0x00207e70                _ZN7ecrobot3Lcd4dispEv
 .text._ZN7ecrobot11LightSensorD0Ev
                0x00207e7c       0x30 /home/nxtOSEK/ecrobot/../ecrobot/libecrobot++.a(LightSensor.o)
                0x00207e7c                _ZN7ecrobot11LightSensorD0Ev
 .text._ZN7ecrobot11LightSensor7setLampEb
                0x00207eac       0x1c /home/nxtOSEK/ecrobot/../ecrobot/libecrobot++.a(LightSensor.o)
                0x00207eac                _ZN7ecrobot11LightSensor7setLampEb
 .text._ZN7ecrobot11LightSensorC1E6ePortSb
                0x00207ec8       0x3c /home/nxtOSEK/ecrobot/../ecrobot/libecrobot++.a(LightSensor.o)
                0x00207ec8                _ZN7ecrobot11LightSensorC1E6ePortSb
 .text._ZN7ecrobot11LightSensorD1Ev
                0x00207f04       0x28 /home/nxtOSEK/ecrobot/../ecrobot/libecrobot++.a(LightSensor.o)
                0x00207f04                _ZN7ecrobot11LightSensorD1Ev
 .text._ZN7ecrobot5MotorC1E6ePortMb
                0x00207f2c       0x18 /home/nxtOSEK/ecrobot/../ecrobot/libecrobot++.a(Motor.o)
                0x00207f2c                _ZN7ecrobot5MotorC1E6ePortMb
 .text._ZN7ecrobot5MotorD1Ev
                0x00207f44       0x10 /home/nxtOSEK/ecrobot/../ecrobot/libecrobot++.a(Motor.o)
                0x00207f44                _ZN7ecrobot5MotorD1Ev
 .text._ZN7ecrobot5Motor6setPWMEa
                0x00207f54       0x3c /home/nxtOSEK/ecrobot/../ecrobot/libecrobot++.a(Motor.o)
                0x00207f54                _ZN7ecrobot5Motor6setPWMEa
 .text._ZN7ecrobot3NxtC1Ev
                0x00207f90        0x4 /home/nxtOSEK/ecrobot/../ecrobot/libecrobot++.a(Nxt.o)
                0x00207f90                _ZN7ecrobot3NxtC1Ev
 .text._ZNK7ecrobot3Nxt9getBattMvEv
                0x00207f94       0x10 /home/nxtOSEK/ecrobot/../ecrobot/libecrobot++.a(Nxt.o)
                0x00207f94                _ZNK7ecrobot3Nxt9getBattMvEv
 .text._ZNK7ecrobot3Nxt10getButtonsEv
                0x00207fa4       0x28 /home/nxtOSEK/ecrobot/../ecrobot/libecrobot++.a(Nxt.o)
                0x00207fa4                _ZNK7ecrobot3Nxt10getButtonsEv
 .text._ZN7ecrobot11SonarSensorC1E6ePortS
                0x00207fcc       0x18 /home/nxtOSEK/ecrobot/../ecrobot/libecrobot++.a(SonarSensor.o)
                0x00207fcc                _ZN7ecrobot11SonarSensorC1E6ePortS
 .text._ZNK7ecrobot11SonarSensor11getDistanceEv
                0x00207fe4       0x1c /home/nxtOSEK/ecrobot/../ecrobot/libecrobot++.a(SonarSensor.o)
                0x00207fe4                _ZNK7ecrobot11SonarSensor11getDistanceEv
 .text._ZN7ecrobot7SpeakerC1Ev
                0x00208000        0x4 /home/nxtOSEK/ecrobot/../ecrobot/libecrobot++.a(Speaker.o)
                0x00208000                _ZN7ecrobot7SpeakerC1Ev
 .text._ZN7ecrobot7Speaker8playToneEmmm
                0x00208004       0x28 /home/nxtOSEK/ecrobot/../ecrobot/libecrobot++.a(Speaker.o)
                0x00208004                _ZN7ecrobot7Speaker8playToneEmmm
 .text._ZN7ecrobot11TouchSensorC1E6ePortS
                0x0020802c       0x30 /home/nxtOSEK/ecrobot/../ecrobot/libecrobot++.a(TouchSensor.o)
                0x0020802c                _ZN7ecrobot11TouchSensorC1E6ePortS
 .text._ZNK7ecrobot11TouchSensor9isPressedEv
                0x0020805c       0x20 /home/nxtOSEK/ecrobot/../ecrobot/libecrobot++.a(TouchSensor.o)
                0x0020805c                _ZNK7ecrobot11TouchSensor9isPressedEv
 .text._ZN7ecrobot12BTConnection7connectEPKcS2_
                0x0020807c      0x174 /home/nxtOSEK/ecrobot/../ecrobot/libecrobot++.a(BTConnection.o)
                0x0020807c                _ZN7ecrobot12BTConnection7connectEPKcS2_
 .text._ZN7ecrobot3DaqC1ERNS_9BluetoothE
                0x002081f0        0x4 /home/nxtOSEK/ecrobot/../ecrobot/libecrobot++.a(Daq.o)
                0x002081f0                _ZN7ecrobot3DaqC1ERNS_9BluetoothE
 .text._ZN7ecrobot3Daq4sendEPatPsPl
                0x002081f4       0x6c /home/nxtOSEK/ecrobot/../ecrobot/libecrobot++.a(Daq.o)
                0x002081f4                _ZN7ecrobot3Daq4sendEPatPsPl
 .text._Znwm    0x00208260       0x10 /home/nxtOSEK/ecrobot/../ecrobot/libecrobot++.a(New.o)
                0x00208260                _Znwm
 .text._Znam    0x00208270       0x10 /home/nxtOSEK/ecrobot/../ecrobot/libecrobot++.a(New.o)
                0x00208270                _Znam
 .text._ZdlPv   0x00208280        0xc /home/nxtOSEK/ecrobot/../ecrobot/libecrobot++.a(New.o)
                0x00208280                _ZdlPv
 .text.ecrobot_device_initialize
                0x0020828c        0x4 /home/nxtOSEK/ecrobot/../ecrobot/libecrobot.a(ecrobot_device_hook.o)
                0x0020828c                ecrobot_device_initialize
 .text.ecrobot_device_terminate
                0x00208290        0x4 /home/nxtOSEK/ecrobot/../ecrobot/libecrobot.a(ecrobot_device_hook.o)
                0x00208290                ecrobot_device_terminate
 .text.ecrobot_get_battery_voltage
                0x00208294        0xc /home/nxtOSEK/ecrobot/../ecrobot/libecrobot.a(ecrobot_interface.o)
                0x00208294                ecrobot_get_battery_voltage
 .text.ecrobot_get_button_state
                0x002082a0        0xc /home/nxtOSEK/ecrobot/../ecrobot/libecrobot.a(ecrobot_interface.o)
                0x002082a0                ecrobot_get_button_state
 .text.ecrobot_init_nxtstate
                0x002082ac       0x28 /home/nxtOSEK/ecrobot/../ecrobot/libecrobot.a(ecrobot_interface.o)
                0x002082ac                ecrobot_init_nxtstate
 .text.ecrobot_poll_nxtstate
                0x002082d4       0x64 /home/nxtOSEK/ecrobot/../ecrobot/libecrobot.a(ecrobot_interface.o)
                0x002082d4                ecrobot_poll_nxtstate
 .text.ecrobot_setDeviceInitialized
                0x00208338       0x18 /home/nxtOSEK/ecrobot/../ecrobot/libecrobot.a(ecrobot_interface.o)
                0x00208338                ecrobot_setDeviceInitialized
 .text.ecrobot_initDeviceStatus
                0x00208350        0xc /home/nxtOSEK/ecrobot/../ecrobot/libecrobot.a(ecrobot_interface.o)
                0x00208350                ecrobot_initDeviceStatus
 .text.ecrobot_bmp2lcd
                0x0020835c      0x1c8 /home/nxtOSEK/ecrobot/../ecrobot/libecrobot.a(ecrobot_interface.o)
                0x0020835c                ecrobot_bmp2lcd
 .text.ecrobot_sound_tone
                0x00208524        0xc /home/nxtOSEK/ecrobot/../ecrobot/libecrobot.a(ecrobot_interface.o)
                0x00208524                ecrobot_sound_tone
 .text.ecrobot_is_ENTER_button_pressed
                0x00208530       0x10 /home/nxtOSEK/ecrobot/../ecrobot/libecrobot.a(ecrobot_interface.o)
                0x00208530                ecrobot_is_ENTER_button_pressed
 .text.ecrobot_is_RUN_button_pressed
                0x00208540       0x10 /home/nxtOSEK/ecrobot/../ecrobot/libecrobot.a(ecrobot_interface.o)
                0x00208540                ecrobot_is_RUN_button_pressed
 .text.StartupHook
                0x00208550        0x4 /home/nxtOSEK/ecrobot/../ecrobot/libecrobot.a(osek_hook.o)
                0x00208550                StartupHook
 .text.PreTaskHook
                0x00208554        0x4 /home/nxtOSEK/ecrobot/../ecrobot/libecrobot.a(osek_hook.o)
                0x00208554                PreTaskHook
 .text.PostTaskHook
                0x00208558        0x4 /home/nxtOSEK/ecrobot/../ecrobot/libecrobot.a(osek_hook.o)
                0x00208558                PostTaskHook
 .text.ErrorHook
                0x0020855c        0x4 /home/nxtOSEK/ecrobot/../ecrobot/libecrobot.a(osek_hook.o)
                0x0020855c                ErrorHook
 .text.ShutdownHook
                0x00208560        0x4 /home/nxtOSEK/ecrobot/../ecrobot/libecrobot.a(osek_hook.o)
                0x00208560                ShutdownHook
 .text.balance_control
                0x00208564      0x254 /home/nxtOSEK/ecrobot/../ecrobot/libnxtway_gs_balancer.a(balancer.o)
                0x00208564                balance_control
 .text.balance_init
                0x002087b8       0x30 /home/nxtOSEK/ecrobot/../ecrobot/libnxtway_gs_balancer.a(balancer.o)
                0x002087b8                balance_init
 .text          0x002087e8       0xb8 /home/GNUARM/bin/../lib/gcc/arm-elf/4.0.2/../../../../arm-elf/lib/thumb/interwork/libm.a(s_cos.o)
                0x002087e8                cos
 .text          0x002088a0       0xbc /home/GNUARM/bin/../lib/gcc/arm-elf/4.0.2/../../../../arm-elf/lib/thumb/interwork/libm.a(s_sin.o)
                0x002088a0                sin
 .text          0x0020895c       0xc4 /home/GNUARM/bin/../lib/gcc/arm-elf/4.0.2/../../../../arm-elf/lib/thumb/interwork/libm.a(w_sqrt.o)
                0x0020895c                sqrt
 .text          0x00208a20      0x434 /home/GNUARM/bin/../lib/gcc/arm-elf/4.0.2/../../../../arm-elf/lib/thumb/interwork/libm.a(e_rem_pio2.o)
                0x00208a20                __ieee754_rem_pio2
 .text          0x00208e54      0x1e8 /home/GNUARM/bin/../lib/gcc/arm-elf/4.0.2/../../../../arm-elf/lib/thumb/interwork/libm.a(e_sqrt.o)
                0x00208e54                __ieee754_sqrt
 .text          0x0020903c      0x20c /home/GNUARM/bin/../lib/gcc/arm-elf/4.0.2/../../../../arm-elf/lib/thumb/interwork/libm.a(k_cos.o)
                0x0020903c                __kernel_cos
 .text          0x00209248      0x8d8 /home/GNUARM/bin/../lib/gcc/arm-elf/4.0.2/../../../../arm-elf/lib/thumb/interwork/libm.a(k_rem_pio2.o)
                0x00209248                __kernel_rem_pio2
 .text          0x00209b20      0x180 /home/GNUARM/bin/../lib/gcc/arm-elf/4.0.2/../../../../arm-elf/lib/thumb/interwork/libm.a(k_sin.o)
                0x00209b20                __kernel_sin
 .text          0x00209ca0       0x14 /home/GNUARM/bin/../lib/gcc/arm-elf/4.0.2/../../../../arm-elf/lib/thumb/interwork/libm.a(s_fabs.o)
                0x00209ca0                fabs
 .text          0x00209cb4      0x16c /home/GNUARM/bin/../lib/gcc/arm-elf/4.0.2/../../../../arm-elf/lib/thumb/interwork/libm.a(s_floor.o)
                0x00209cb4                floor
 .text          0x00209e20       0x1c /home/GNUARM/bin/../lib/gcc/arm-elf/4.0.2/../../../../arm-elf/lib/thumb/interwork/libm.a(s_isnan.o)
                0x00209e20                isnan
 .text          0x00209e3c        0x4 /home/GNUARM/bin/../lib/gcc/arm-elf/4.0.2/../../../../arm-elf/lib/thumb/interwork/libm.a(s_matherr.o)
                0x00209e3c                matherr
 .text          0x00209e40      0x130 /home/GNUARM/bin/../lib/gcc/arm-elf/4.0.2/../../../../arm-elf/lib/thumb/interwork/libm.a(s_scalbn.o)
                0x00209e40                scalbn
 .text          0x00209f70       0x24 /home/GNUARM/bin/../lib/gcc/arm-elf/4.0.2/../../../../arm-elf/lib/thumb/interwork/libm.a(s_copysign.o)
                0x00209f70                copysign
 .text          0x00209f94       0x8c /home/GNUARM/bin/../lib/gcc/arm-elf/4.0.2/thumb/interwork/libgcc.a(_udivsi3.o)
                0x00209f94                __udivsi3
                0x0020a010                __aeabi_uidivmod
 .text          0x0020a020       0xa4 /home/GNUARM/bin/../lib/gcc/arm-elf/4.0.2/thumb/interwork/libgcc.a(_divsi3.o)
                0x0020a020                __divsi3
                0x0020a0b4                __aeabi_idivmod
 .text          0x0020a0c4       0xc8 /home/GNUARM/bin/../lib/gcc/arm-elf/4.0.2/thumb/interwork/libgcc.a(_umodsi3.o)
                0x0020a0c4                __umodsi3
 .text          0x0020a18c       0xd8 /home/GNUARM/bin/../lib/gcc/arm-elf/4.0.2/thumb/interwork/libgcc.a(_modsi3.o)
                0x0020a18c                __modsi3
 .text          0x0020a264        0x4 /home/GNUARM/bin/../lib/gcc/arm-elf/4.0.2/thumb/interwork/libgcc.a(_dvmd_tls.o)
                0x0020a264                __aeabi_ldiv0
                0x0020a264                __div0
                0x0020a264                __aeabi_idiv0
 .text          0x0020a268      0x430 /home/GNUARM/bin/../lib/gcc/arm-elf/4.0.2/thumb/interwork/libgcc.a(_addsubdf3.o)
                0x0020a62c                __floatdidf
                0x0020a5ac                __floatsidf
                0x0020a584                __aeabi_ui2d
                0x0020a268                __aeabi_drsub
                0x0020a5d8                __extendsfdf2
                0x0020a274                __adddf3
                0x0020a584                __floatunsidf
                0x0020a274                __aeabi_dadd
                0x0020a618                __aeabi_ul2d
                0x0020a270                __aeabi_dsub
                0x0020a618                __floatundidf
                0x0020a5ac                __aeabi_i2d
                0x0020a62c                __aeabi_l2d
                0x0020a5d8                __aeabi_f2d
                0x0020a270                __subdf3
 .text          0x0020a698      0x49c /home/GNUARM/bin/../lib/gcc/arm-elf/4.0.2/thumb/interwork/libgcc.a(_muldivdf3.o)
                0x0020a928                __aeabi_ddiv
                0x0020a698                __aeabi_dmul
                0x0020a928                __divdf3
                0x0020a698                __muldf3
 .text          0x0020ab34      0x140 /home/GNUARM/bin/../lib/gcc/arm-elf/4.0.2/thumb/interwork/libgcc.a(_cmpdf2.o)
                0x0020ac2c                __aeabi_dcmple
                0x0020ab44                __cmpdf2
                0x0020ab44                __eqdf2
                0x0020ab34                __gtdf2
                0x0020abe4                __aeabi_cdcmple
                0x0020abc8                __aeabi_cdrcmple
                0x0020ab3c                __ltdf2
                0x0020ac14                __aeabi_dcmplt
                0x0020ab3c                __ledf2
                0x0020ac5c                __aeabi_dcmpgt
                0x0020ac44                __aeabi_dcmpge
                0x0020ab44                __nedf2
                0x0020abfc                __aeabi_dcmpeq
                0x0020abe4                __aeabi_cdcmpeq
                0x0020ab34                __gedf2
 .text          0x0020ac74       0x5c /home/GNUARM/bin/../lib/gcc/arm-elf/4.0.2/thumb/interwork/libgcc.a(_fixdfsi.o)
                0x0020ac74                __fixdfsi
                0x0020ac74                __aeabi_d2iz
 .text          0x0020acd0       0xa0 /home/GNUARM/bin/../lib/gcc/arm-elf/4.0.2/thumb/interwork/libgcc.a(_truncdfsf2.o)
                0x0020acd0                __aeabi_d2f
                0x0020acd0                __truncdfsf2
 .text          0x0020ad70      0x2ac /home/GNUARM/bin/../lib/gcc/arm-elf/4.0.2/thumb/interwork/libgcc.a(_addsubsf3.o)
                0x0020ad7c                __aeabi_fadd
                0x0020ad78                __subsf3
                0x0020af40                __aeabi_i2f
                0x0020ad78                __aeabi_fsub
                0x0020af70                __floatdisf
                0x0020af40                __floatsisf
                0x0020af60                __floatundisf
                0x0020af38                __aeabi_ui2f
                0x0020af70                __aeabi_l2f
                0x0020af60                __aeabi_ul2f
                0x0020ad70                __aeabi_frsub
                0x0020af38                __floatunsisf
                0x0020ad7c                __addsf3
 .text          0x0020b01c      0x2f8 /home/GNUARM/bin/../lib/gcc/arm-elf/4.0.2/thumb/interwork/libgcc.a(_muldivsf3.o)
                0x0020b1b4                __divsf3
                0x0020b1b4                __aeabi_fdiv
                0x0020b01c                __mulsf3
                0x0020b01c                __aeabi_fmul
 .text          0x0020b314      0x110 /home/GNUARM/bin/../lib/gcc/arm-elf/4.0.2/thumb/interwork/libgcc.a(_cmpsf2.o)
                0x0020b40c                __aeabi_fcmpgt
                0x0020b31c                __lesf2
                0x0020b324                __nesf2
                0x0020b3f4                __aeabi_fcmpge
                0x0020b314                __gtsf2
                0x0020b3dc                __aeabi_fcmple
                0x0020b324                __eqsf2
                0x0020b324                __cmpsf2
                0x0020b31c                __ltsf2
                0x0020b394                __aeabi_cfcmple
                0x0020b314                __gesf2
                0x0020b3ac                __aeabi_fcmpeq
                0x0020b384                __aeabi_cfrcmple
                0x0020b3c4                __aeabi_fcmplt
                0x0020b394                __aeabi_cfcmpeq
 .text          0x0020b424       0x5c /home/GNUARM/bin/../lib/gcc/arm-elf/4.0.2/thumb/interwork/libgcc.a(_fixsfsi.o)
                0x0020b424                __fixsfsi
                0x0020b424                __aeabi_f2iz
 .text          0x0020b480        0xc /home/GNUARM/bin/../lib/gcc/arm-elf/4.0.2/../../../../arm-elf/lib/thumb/interwork/libc.a(errno.o)
                0x0020b480                __errno
 .text          0x0020b48c       0x28 /home/GNUARM/bin/../lib/gcc/arm-elf/4.0.2/../../../../arm-elf/lib/thumb/interwork/libc.a(malloc.o)
                0x0020b48c                malloc
                0x0020b4a0                free
 .text          0x0020b4b4      0x548 /home/GNUARM/bin/../lib/gcc/arm-elf/4.0.2/../../../../arm-elf/lib/thumb/interwork/libc.a(mallocr.o)
                0x0020b4b4                _malloc_r
 .text          0x0020b9fc       0x68 /home/GNUARM/bin/../lib/gcc/arm-elf/4.0.2/../../../../arm-elf/lib/thumb/interwork/libc.a(memcpy.o)
                0x0020b9fc                memcpy
 .text          0x0020ba64       0x68 /home/GNUARM/bin/../lib/gcc/arm-elf/4.0.2/../../../../arm-elf/lib/thumb/interwork/libc.a(memset.o)
                0x0020ba64                memset
 .text          0x0020bacc        0x8 /home/GNUARM/bin/../lib/gcc/arm-elf/4.0.2/../../../../arm-elf/lib/thumb/interwork/libc.a(mlock.o)
                0x0020bad0                __malloc_unlock
                0x0020bacc                __malloc_lock
 .text          0x0020bad4       0x60 /home/GNUARM/bin/../lib/gcc/arm-elf/4.0.2/../../../../arm-elf/lib/thumb/interwork/libc.a(strcpy.o)
                0x0020bad4                strcpy
 .text          0x0020bb34       0x48 /home/GNUARM/bin/../lib/gcc/arm-elf/4.0.2/../../../../arm-elf/lib/thumb/interwork/libc.a(strlen.o)
                0x0020bb34                strlen
 .text          0x0020bb7c       0x84 /home/GNUARM/bin/../lib/gcc/arm-elf/4.0.2/../../../../arm-elf/lib/thumb/interwork/libc.a(strncpy.o)
                0x0020bb7c                strncpy
 .text          0x0020bc00      0x260 /home/GNUARM/bin/../lib/gcc/arm-elf/4.0.2/../../../../arm-elf/lib/thumb/interwork/libc.a(freer.o)
                0x0020bca0                _free_r
                0x0020bc00                _malloc_trim_r
 .glue_7        0x0020be60       0x30 /home/GNUARM/bin/../lib/gcc/arm-elf/4.0.2/../../../../arm-elf/lib/thumb/interwork/libc.a(freer.o)
                0x0020be78                __call_posttaskhook_from_arm
                0x0020be61                __ecrobot_debug1_from_arm
                0x0020be6d                __ecrobot_debug2_from_arm
                0x0020be84                __call_pretaskhook_from_arm
 .glue_7t       0x0020be90      0x108 /home/GNUARM/bin/../lib/gcc/arm-elf/4.0.2/../../../../arm-elf/lib/thumb/interwork/libc.a(freer.o)
                0x0020bebc                __start_change_to_arm
                0x0020bf68                __interrupts_get_and_disable_from_thumb
                0x0020bf80                ____lesf2_from_thumb
                0x0020bf60                ____gtdf2_from_thumb
                0x0020beb0                __exit_and_dispatch_from_thumb
                0x0020bf28                ____divsf3_from_thumb
                0x0020bf24                ____gesf2_change_to_arm
                0x0020bf10                ____subdf3_from_thumb
                0x0020bf3c                ____ltdf2_change_to_arm
                0x0020bee4                ____fixsfsi_change_to_arm
                0x0020bf5c                ____eqsf2_change_to_arm
                0x0020bf50                ____ledf2_from_thumb
                0x0020bf4c                ____addsf3_change_to_arm
                0x0020bf14                ____subdf3_change_to_arm
                0x0020bee0                ____fixsfsi_from_thumb
                0x0020bec0                ____floatsisf_from_thumb
                0x0020bf08                ____extendsfdf2_from_thumb
                0x0020bf94                ____gedf2_change_to_arm
                0x0020beb4                __exit_and_dispatch_change_to_arm
                0x0020bf88                ____eqdf2_from_thumb
                0x0020be90                __disable_int_from_thumb
                0x0020bf20                ____gesf2_from_thumb
                0x0020bea8                __start_dispatch_from_thumb
                0x0020bed8                ____ltsf2_from_thumb
                0x0020bee8                ____fixdfsi_from_thumb
                0x0020befc                ____divdf3_change_to_arm
                0x0020bf84                ____lesf2_change_to_arm
                0x0020bf90                ____gedf2_from_thumb
                0x0020beb8                __start_from_thumb
                0x0020bf00                ____truncdfsf2_from_thumb
                0x0020bef4                ____muldf3_change_to_arm
                0x0020bf2c                ____divsf3_change_to_arm
                0x0020beec                ____fixdfsi_change_to_arm
                0x0020bef8                ____divdf3_from_thumb
                0x0020be98                __enable_int_from_thumb
                0x0020bea0                __dispatch_from_thumb
                0x0020bf74                __interrupts_enable_change_to_arm
                0x0020bed0                ____gtsf2_from_thumb
                0x0020bf6c                __interrupts_get_and_disable_change_to_arm
                0x0020bea4                __dispatch_change_to_arm
                0x0020becc                ____mulsf3_change_to_arm
                0x0020bf1c                ____adddf3_change_to_arm
                0x0020bf64                ____gtdf2_change_to_arm
                0x0020bf04                ____truncdfsf2_change_to_arm
                0x0020bf0c                ____extendsfdf2_change_to_arm
                0x0020bf30                ____floatsidf_from_thumb
                0x0020bf38                ____ltdf2_from_thumb
                0x0020bec4                ____floatsisf_change_to_arm
                0x0020bf79                __display_bios_status_from_thumb
                0x0020bf40                ____subsf3_from_thumb
                0x0020bf18                ____adddf3_from_thumb
                0x0020bed4                ____gtsf2_change_to_arm
                0x0020bf8c                ____eqdf2_change_to_arm
                0x0020be94                __disable_int_change_to_arm
                0x0020bedc                ____ltsf2_change_to_arm
                0x0020bec8                ____mulsf3_from_thumb
                0x0020bf48                ____addsf3_from_thumb
                0x0020bef0                ____muldf3_from_thumb
                0x0020bf59                ____eqsf2_from_thumb
                0x0020bf44                ____subsf3_change_to_arm
                0x0020bf54                ____ledf2_change_to_arm
                0x0020be9c                __enable_int_change_to_arm
                0x0020bf34                ____floatsidf_change_to_arm
                0x0020bf70                __interrupts_enable_from_thumb
                0x0020bf7c                __display_bios_status_change_to_arm
                0x0020beac                __start_dispatch_change_to_arm
                0x0020bfa0                . = ALIGN (0x10)
 *fill*         0x0020bf98        0x8 00
 *(*.rodata *.rodata.*)
 .rodata.search_table.966
                0x0020bfa0        0xf build/kernel/task.o
 *fill*         0x0020bfaf        0x1 00
 .rodata.EventSleep
                0x0020bfb0        0x4 build/./kernel_cfg.o
                0x0020bfb0                EventSleep
 .rodata.EventSleepI2C
                0x0020bfb4        0x4 build/./kernel_cfg.o
                0x0020bfb4                EventSleepI2C
 .rodata.EventDrive
                0x0020bfb8        0x4 build/./kernel_cfg.o
                0x0020bfb8                EventDrive
 .rodata.alminib_cycle
                0x0020bfbc        0x4 build/./kernel_cfg.o
                0x0020bfbc                alminib_cycle
 .rodata.alminib_almval
                0x0020bfc0        0x4 build/./kernel_cfg.o
                0x0020bfc0                alminib_almval
 .rodata.alminib_autosta
                0x0020bfc4        0x1 build/./kernel_cfg.o
                0x0020bfc4                alminib_autosta
 *fill*         0x0020bfc5        0x3 00
 .rodata.alminib_cback
                0x0020bfc8        0x4 build/./kernel_cfg.o
                0x0020bfc8                alminib_cback
 .rodata.alminib_cntid
                0x0020bfcc        0x1 build/./kernel_cfg.o
                0x0020bfcc                alminib_cntid
 .rodata.Alarm4msec
                0x0020bfcd        0x1 build/./kernel_cfg.o
                0x0020bfcd                Alarm4msec
 *fill*         0x0020bfce        0x2 00
 .rodata.cntinib_mincyc
                0x0020bfd0        0x4 build/./kernel_cfg.o
                0x0020bfd0                cntinib_mincyc
 .rodata.cntinib_tickbase
                0x0020bfd4        0x4 build/./kernel_cfg.o
                0x0020bfd4                cntinib_tickbase
 .rodata.cntinib_maxval2
                0x0020bfd8        0x4 build/./kernel_cfg.o
                0x0020bfd8                cntinib_maxval2
 .rodata.cntinib_maxval
                0x0020bfdc        0x4 build/./kernel_cfg.o
                0x0020bfdc                cntinib_maxval
 .rodata.SysTimerCnt
                0x0020bfe0        0x1 build/./kernel_cfg.o
                0x0020bfe0                SysTimerCnt
 *fill*         0x0020bfe1        0x1 00
 .rodata.tinib_stksz
                0x0020bfe2        0x4 build/./kernel_cfg.o
                0x0020bfe2                tinib_stksz
 *fill*         0x0020bfe6        0x2 00
 .rodata.tinib_stk
                0x0020bfe8        0x8 build/./kernel_cfg.o
                0x0020bfe8                tinib_stk
 .rodata.tinib_task
                0x0020bff0        0x8 build/./kernel_cfg.o
                0x0020bff0                tinib_task
 .rodata.tinib_autoact
                0x0020bff8        0x2 build/./kernel_cfg.o
                0x0020bff8                tinib_autoact
 .rodata.tinib_exepri
                0x0020bffa        0x2 build/./kernel_cfg.o
                0x0020bffa                tinib_exepri
 .rodata.tinib_inipri
                0x0020bffc        0x2 build/./kernel_cfg.o
                0x0020bffc                tinib_inipri
 .rodata.tnum_exttask
                0x0020bffe        0x1 build/./kernel_cfg.o
                0x0020bffe                tnum_exttask
 .rodata.tnum_task
                0x0020bfff        0x1 build/./kernel_cfg.o
                0x0020bfff                tnum_task
 .rodata.tnum_resource
                0x0020c000        0x1 build/./kernel_cfg.o
                0x0020c000                tnum_resource
 .rodata.tnum_counter
                0x0020c001        0x1 build/./kernel_cfg.o
                0x0020c001                tnum_counter
 .rodata.tnum_alarm
                0x0020c002        0x1 build/./kernel_cfg.o
                0x0020c002                tnum_alarm
 *fill*         0x0020c003        0x1 00
 .rodata.exec_addr
                0x0020c004        0x4 build/ecrobot_base.o
                0x0020c004                exec_addr
 .rodata.str1.4
                0x0020c008       0x80 build/ecrobot_base.o
 .rodata.BATTERY_OFFSET
                0x0020c088        0x4 build/balancer_param.o
                0x0020c088                BATTERY_OFFSET
 .rodata.BATTERY_GAIN
                0x0020c08c        0x4 build/balancer_param.o
                0x0020c08c                BATTERY_GAIN
 .rodata.BT_PASS_KEY
                0x0020c090        0x8 build/Robot.o
 .rodata.str1.4
                0x0020c098       0x24 build/Robot.o
                                 0x28 (size before relaxing)
 .rodata.str1.4
                0x0020c0bc       0xc9 build/Driver.o
                                 0xd0 (size before relaxing)
 *fill*         0x0020c185        0x3 00
 .rodata.str1.4
                0x0020c188        0x8 build/Mission.o
 .rodata.str1.4
                0x0020c190        0x2 build/PositionEstimation.o
                                  0x4 (size before relaxing)
 *fill*         0x0020c192        0x2 00
 .rodata.str1.4
                0x0020c194        0xa /home/nxtOSEK/ecrobot/../ecrobot/libecrobot++.a(Bluetooth.o)
                                  0xc (size before relaxing)
 *fill*         0x0020c19e        0x2 00
 .rodata.str1.4
                0x0020c1a0        0xe /home/nxtOSEK/ecrobot/../ecrobot/libecrobot++.a(GyroSensor.o)
                                 0x10 (size before relaxing)
 *fill*         0x0020c1ae        0x2 00
 .rodata.str1.4
                0x0020c1b0        0xb /home/nxtOSEK/ecrobot/../ecrobot/libecrobot++.a(I2c.o)
                                  0xc (size before relaxing)
 .rodata.str1.4
                0x0020c1bb        0x0 /home/nxtOSEK/ecrobot/../ecrobot/libecrobot++.a(LightSensor.o)
                                 0x10 (size before relaxing)
 *fill*         0x0020c1bb        0x1 00
 .rodata.str1.4
                0x0020c1bc        0xd /home/nxtOSEK/ecrobot/../ecrobot/libecrobot++.a(Motor.o)
                                 0x10 (size before relaxing)
 .rodata.str1.4
                0x0020c1c9        0x0 /home/nxtOSEK/ecrobot/../ecrobot/libecrobot++.a(TouchSensor.o)
                                 0x10 (size before relaxing)
 *fill*         0x0020c1c9        0x3 00
 .rodata.str1.4
                0x0020c1cc       0x7d /home/nxtOSEK/ecrobot/../ecrobot/libecrobot++.a(BTConnection.o)
                                 0xc0 (size before relaxing)
 *fill*         0x0020c249        0x3 00
 .rodata.str1.4
                0x0020c24c        0x5 /home/GNUARM/bin/../lib/gcc/arm-elf/4.0.2/../../../../arm-elf/lib/thumb/interwork/libm.a(w_sqrt.o)
                                  0x8 (size before relaxing)
 *fill*         0x0020c251        0x3 00
 .rodata        0x0020c254      0x188 /home/GNUARM/bin/../lib/gcc/arm-elf/4.0.2/../../../../arm-elf/lib/thumb/interwork/libm.a(e_rem_pio2.o)
 .rodata        0x0020c3dc       0x50 /home/GNUARM/bin/../lib/gcc/arm-elf/4.0.2/../../../../arm-elf/lib/thumb/interwork/libm.a(k_rem_pio2.o)
 .rodata        0x0020c42c        0x4 /home/GNUARM/bin/../lib/gcc/arm-elf/4.0.2/../../../../arm-elf/lib/thumb/interwork/libm.a(s_lib_ver.o)
                0x0020c42c                __fdlib_version
 .rodata.str1.4
                0x0020c430        0x2 /home/GNUARM/bin/../lib/gcc/arm-elf/4.0.2/../../../../arm-elf/lib/thumb/interwork/libc.a(impure.o)
                                  0x4 (size before relaxing)
                0x0020c440                . = ALIGN (0x10)
 *fill*         0x0020c432        0xe 00
 *(*.gnu.linkonce.* .gcc_except_table)
 .gnu.linkonce.r._ZTVN7ecrobot10GyroSensorE
                0x0020c440       0x10 build/Robot.o
                0x0020c440                _ZTVN7ecrobot10GyroSensorE
 .gnu.linkonce.r._ZTVN7ecrobot6SensorE
                0x0020c450       0x10 build/Robot.o
                0x0020c450                _ZTVN7ecrobot6SensorE
 .gnu.linkonce.r._ZTVN7ecrobot11SonarSensorE
                0x0020c460       0x10 build/Robot.o
                0x0020c460                _ZTVN7ecrobot11SonarSensorE
 .gnu.linkonce.r._ZTVN7ecrobot11TouchSensorE
                0x0020c470       0x10 build/Robot.o
                0x0020c470                _ZTVN7ecrobot11TouchSensorE
 .gnu.linkonce.t._ZN7ecrobot6SensorD1Ev
                0x0020c480       0x18 build/Robot.o
                0x0020c480                _ZN7ecrobot6SensorD1Ev
 .gnu.linkonce.t._ZN7ecrobot6SensorD0Ev
                0x0020c498       0x20 build/Robot.o
                0x0020c498                _ZN7ecrobot6SensorD0Ev
 .gnu.linkonce.t._ZN7ecrobot10GyroSensorD1Ev
                0x0020c4b8       0x18 build/Robot.o
                0x0020c4b8                _ZN7ecrobot10GyroSensorD1Ev
 .gnu.linkonce.t._ZN7ecrobot11SonarSensorD1Ev
                0x0020c4d0       0x14 build/Robot.o
                0x0020c4d0                _ZN7ecrobot11SonarSensorD1Ev
 .gnu.linkonce.t._ZN7ecrobot11SonarSensorD0Ev
                0x0020c4e4       0x1c build/Robot.o
                0x0020c4e4                _ZN7ecrobot11SonarSensorD0Ev
 .gnu.linkonce.t._ZN7ecrobot11TouchSensorD0Ev
                0x0020c500       0x20 build/Robot.o
                0x0020c500                _ZN7ecrobot11TouchSensorD0Ev
 .gnu.linkonce.t._ZN7ecrobot11TouchSensorD1Ev
                0x0020c520       0x18 build/Robot.o
                0x0020c520                _ZN7ecrobot11TouchSensorD1Ev
 .gnu.linkonce.t._ZN7ecrobot10GyroSensorD0Ev
                0x0020c538       0x20 build/Robot.o
                0x0020c538                _ZN7ecrobot10GyroSensorD0Ev
 .gnu.linkonce.r._ZTV6Driver
                0x0020c558       0x14 build/Driver.o
                0x0020c558                _ZTV6Driver
 .gnu.linkonce.r._ZTV13RobotObserver
                0x0020c56c       0x14 build/Driver.o
                0x0020c56c                _ZTV13RobotObserver
 .gnu.linkonce.r._ZTV20Mission_TailStraight
                0x0020c580       0x1c build/Driver.o
                0x0020c580                _ZTV20Mission_TailStraight
 .gnu.linkonce.r._ZTV23ControlMission_SpeedPID
                0x0020c59c       0x1c build/Driver.o
                0x0020c59c                _ZTV23ControlMission_SpeedPID
 .gnu.linkonce.r._ZTV20ControlMission_Speed
                0x0020c5b8       0x1c build/Driver.o
                0x0020c5b8                _ZTV20ControlMission_Speed
 .gnu.linkonce.r._ZTV22ControlMission_Posture
                0x0020c5d4       0x1c build/Driver.o
                0x0020c5d4                _ZTV22ControlMission_Posture
 .gnu.linkonce.r._ZTV25ControlMission_Transition
                0x0020c5f0       0x1c build/Driver.o
                0x0020c5f0                _ZTV25ControlMission_Transition
 .gnu.linkonce.r._ZTV22DetectionMission_Sonar
                0x0020c60c       0x1c build/Driver.o
                0x0020c60c                _ZTV22DetectionMission_Sonar
 .gnu.linkonce.r._ZTV21DetectionMission_Time
                0x0020c628       0x1c build/Driver.o
                0x0020c628                _ZTV21DetectionMission_Time
 .gnu.linkonce.t._ZN13RobotObserverD1Ev
                0x0020c644        0xc build/Driver.o
                0x0020c644                _ZN13RobotObserverD1Ev
 .gnu.linkonce.t._ZN13RobotObserverD0Ev
                0x0020c650       0x14 build/Driver.o
                0x0020c650                _ZN13RobotObserverD0Ev
 .gnu.linkonce.t._ZN13RobotObserver6NotifyEN5Robot10RobotEventE
                0x0020c664        0x4 build/Driver.o
                0x0020c664                _ZN13RobotObserver6NotifyEN5Robot10RobotEventE
 .gnu.linkonce.t._ZN23ControlMission_SpeedPID3RunE9RobotInfo7NavInfo9EventFlagR8RobotCmd
                0x0020c668       0xa0 build/Driver.o
                0x0020c668                _ZN23ControlMission_SpeedPID3RunE9RobotInfo7NavInfo9EventFlagR8RobotCmd
 .gnu.linkonce.t._ZN25ControlMission_TransitionD1Ev
                0x0020c708       0x38 build/Driver.o
                0x0020c708                _ZN25ControlMission_TransitionD1Ev
 .gnu.linkonce.t._ZN25ControlMission_TransitionD0Ev
                0x0020c740       0x40 build/Driver.o
                0x0020c740                _ZN25ControlMission_TransitionD0Ev
 .gnu.linkonce.t._ZN25ControlMission_Transition4InitE9RobotInfo7NavInfo
                0x0020c780       0xb8 build/Driver.o
                0x0020c780                _ZN25ControlMission_Transition4InitE9RobotInfo7NavInfo
 .gnu.linkonce.t._ZN23ControlMission_SpeedPIDD1Ev
                0x0020c838       0x14 build/Driver.o
                0x0020c838                _ZN23ControlMission_SpeedPIDD1Ev
 .gnu.linkonce.t._ZN23ControlMission_SpeedPIDD0Ev
                0x0020c84c       0x1c build/Driver.o
                0x0020c84c                _ZN23ControlMission_SpeedPIDD0Ev
 .gnu.linkonce.t._ZN22DetectionMission_SonarD1Ev
                0x0020c868       0x14 build/Driver.o
                0x0020c868                _ZN22DetectionMission_SonarD1Ev
 .gnu.linkonce.t._ZN22DetectionMission_SonarD0Ev
                0x0020c87c       0x1c build/Driver.o
                0x0020c87c                _ZN22DetectionMission_SonarD0Ev
 .gnu.linkonce.t._ZN21DetectionMission_TimeD1Ev
                0x0020c898       0x14 build/Driver.o
                0x0020c898                _ZN21DetectionMission_TimeD1Ev
 .gnu.linkonce.t._ZN21DetectionMission_TimeD0Ev
                0x0020c8ac       0x1c build/Driver.o
                0x0020c8ac                _ZN21DetectionMission_TimeD0Ev
 .gnu.linkonce.t._ZN20Mission_TailStraight4InitE9RobotInfo7NavInfo
                0x0020c8c8       0xbc build/Driver.o
                0x0020c8c8                _ZN20Mission_TailStraight4InitE9RobotInfo7NavInfo
 .gnu.linkonce.t._ZN22ControlMission_PostureD1Ev
                0x0020c984       0x14 build/Driver.o
                0x0020c984                _ZN22ControlMission_PostureD1Ev
 .gnu.linkonce.t._ZN22ControlMission_PostureD0Ev
                0x0020c998       0x1c build/Driver.o
                0x0020c998                _ZN22ControlMission_PostureD0Ev
 .gnu.linkonce.t._ZN20ControlMission_SpeedD1Ev
                0x0020c9b4       0x14 build/Driver.o
                0x0020c9b4                _ZN20ControlMission_SpeedD1Ev
 .gnu.linkonce.t._ZN20ControlMission_SpeedD0Ev
                0x0020c9c8       0x1c build/Driver.o
                0x0020c9c8                _ZN20ControlMission_SpeedD0Ev
 .gnu.linkonce.t._ZN25ControlMission_Transition3RunE9RobotInfo7NavInfo9EventFlagR8RobotCmd
                0x0020c9e4       0xe8 build/Driver.o
                0x0020c9e4                _ZN25ControlMission_Transition3RunE9RobotInfo7NavInfo9EventFlagR8RobotCmd
 .gnu.linkonce.t._ZN20Mission_TailStraight3RunE9RobotInfo7NavInfo9EventFlagR8RobotCmd
                0x0020cacc      0x1cc build/Driver.o
                0x0020cacc                _ZN20Mission_TailStraight3RunE9RobotInfo7NavInfo9EventFlagR8RobotCmd
 .gnu.linkonce.t._ZN22DetectionMission_Sonar3RunE9RobotInfo7NavInfo9EventFlagR8RobotCmd
                0x0020cc98       0x48 build/Driver.o
                0x0020cc98                _ZN22DetectionMission_Sonar3RunE9RobotInfo7NavInfo9EventFlagR8RobotCmd
 .gnu.linkonce.t._ZN21DetectionMission_Time4InitE9RobotInfo7NavInfo
                0x0020cce0       0x2c build/Driver.o
                0x0020cce0                _ZN21DetectionMission_Time4InitE9RobotInfo7NavInfo
 .gnu.linkonce.t._ZN22ControlMission_Posture4InitE9RobotInfo7NavInfo
                0x0020cd0c       0x28 build/Driver.o
                0x0020cd0c                _ZN22ControlMission_Posture4InitE9RobotInfo7NavInfo
 .gnu.linkonce.t._ZN20ControlMission_Speed4InitE9RobotInfo7NavInfo
                0x0020cd34       0x28 build/Driver.o
                0x0020cd34                _ZN20ControlMission_Speed4InitE9RobotInfo7NavInfo
 .gnu.linkonce.t._ZN23ControlMission_SpeedPID4InitE9RobotInfo7NavInfo
                0x0020cd5c       0x28 build/Driver.o
                0x0020cd5c                _ZN23ControlMission_SpeedPID4InitE9RobotInfo7NavInfo
 .gnu.linkonce.t._ZN21DetectionMission_Time3RunE9RobotInfo7NavInfo9EventFlagR8RobotCmd
                0x0020cd84       0x48 build/Driver.o
                0x0020cd84                _ZN21DetectionMission_Time3RunE9RobotInfo7NavInfo9EventFlagR8RobotCmd
 .gnu.linkonce.t._ZN22ControlMission_Posture3RunE9RobotInfo7NavInfo9EventFlagR8RobotCmd
                0x0020cdcc       0x64 build/Driver.o
                0x0020cdcc                _ZN22ControlMission_Posture3RunE9RobotInfo7NavInfo9EventFlagR8RobotCmd
 .gnu.linkonce.t._ZN20ControlMission_Speed3RunE9RobotInfo7NavInfo9EventFlagR8RobotCmd
                0x0020ce30       0x94 build/Driver.o
                0x0020ce30                _ZN20ControlMission_Speed3RunE9RobotInfo7NavInfo9EventFlagR8RobotCmd
 .gnu.linkonce.t._ZN20Mission_TailStraightD1Ev
                0x0020cec4      0x14c build/Driver.o
                0x0020cec4                _ZN20Mission_TailStraightD1Ev
 .gnu.linkonce.t._ZN20Mission_TailStraightD0Ev
                0x0020d010      0x150 build/Driver.o
                0x0020d010                _ZN20Mission_TailStraightD0Ev
 .gnu.linkonce.r._ZTV7Mission
                0x0020d160       0x1c build/Mission.o
                0x0020d160                _ZTV7Mission
 .gnu.linkonce.r._ZTVN7ecrobot3I2cE
                0x0020d17c       0x10 /home/nxtOSEK/ecrobot/../ecrobot/libecrobot++.a(I2c.o)
                0x0020d17c                _ZTVN7ecrobot3I2cE
 .gnu.linkonce.r._ZTVN7ecrobot11LightSensorE
                0x0020d18c       0x10 /home/nxtOSEK/ecrobot/../ecrobot/libecrobot++.a(LightSensor.o)
                0x0020d18c                _ZTVN7ecrobot11LightSensorE
                0x0020d1a0                . = ALIGN (0x10)
 *fill*         0x0020d19c        0x4 00

.tors           0x0020d1a0       0x20
                0x0020d1a0                . = ALIGN (0x10)
                0x0020d1a0                __ctor_begin = .
 *(*.ctors*)
 .ctors         0x0020d1a0        0x4 build/utils.o
 .ctors         0x0020d1a4        0x4 build/Robot.o
                0x0020d1a8                __ctor_end = .
                0x0020d1b0                . = ALIGN (0x10)
 *fill*         0x0020d1a8        0x8 00
                0x0020d1b0                __dtor_begin = .
 *(*.dtors*)
 .dtors         0x0020d1b0        0x4 build/Robot.o
                0x0020d1b4                __dtor_end = .
                0x0020d1c0                . = ALIGN (0x10)
 *fill*         0x0020d1b4        0xc 00

.bss            0x0020d1c0     0x1f64
 *(*.bss *.bss.*)
 .bss.ready_primap
                0x0020d1c0        0x2 build/kernel/task.o
 .bss.ready_queue_last
                0x0020d1c2       0x10 build/kernel/task.o
 .bss.ready_queue_first
                0x0020d1d2       0x10 build/kernel/task.o
 *fill*         0x0020d1e2        0x2 00
 .bss._stack_TaskRobot
                0x0020d1e4      0x400 build/./kernel_cfg.o
 .bss._stack_TaskDrive
                0x0020d5e4      0x880 build/./kernel_cfg.o
 .bss.sleepTaskCounter
                0x0020de64       0x20 build/rtoscalls.o
 .bss.isTaskSleeping
                0x0020de84        0x8 build/rtoscalls.o
 .bss.isI2cSleeping
                0x0020de8c        0x4 build/rtoscalls.o
 .bss.sleeperTask_ID
                0x0020de90        0x8 build/rtoscalls.o
 .bss.sleeperI2C_ID
                0x0020de98        0x4 build/rtoscalls.o
 .bss.heap_ptr  0x0020de9c        0x4 build/syscalls.o
 .bss.receiveBuf
                0x0020dea0       0x80 build/ecrobot_bluetooth.o
 .bss.sendBuf   0x0020df20      0x100 build/ecrobot_bluetooth.o
 .bss.handle    0x0020e020        0x1 build/ecrobot_bluetooth.o
 *fill*         0x0020e021        0x3 00
 .bss.status_bar_position
                0x0020e024        0x4 build/ecrobot_base.o
 .bss.last_act_time.2742
                0x0020e028        0x4 build/ecrobot_base.o
 .bss.lcd.2671  0x0020e02c      0x320 build/ecrobot_base.o
 .bss.OS_flag   0x0020e34c        0x4 build/ecrobot_base.o
 .bss.status_bar
                0x0020e350       0x10 build/ecrobot_base.o
 .bss.clock     0x0020e360        0x4 build/utils.o
                0x0020e360                clock
 .bss._ZN10CourseInfo4typeE
                0x0020e364        0x4 build/CourseInfo.o
                0x0020e364                _ZN10CourseInfo4typeE
 .bss._ZN10CourseInfo10colorWhiteE
                0x0020e368        0x2 build/CourseInfo.o
                0x0020e368                _ZN10CourseInfo10colorWhiteE
 .bss._ZN10CourseInfo10colorBlackE
                0x0020e36a        0x2 build/CourseInfo.o
                0x0020e36a                _ZN10CourseInfo10colorBlackE
 .bss._ZN5Robot12theInstance_E
                0x0020e36c        0x4 build/Robot.o
                0x0020e36c                _ZN5Robot12theInstance_E
 .bss.marker_check
                0x0020e370       0x48 build/Robot.o
                0x0020e370                marker_check
 .bss.speaker   0x0020e3b8        0x4 build/Robot.o
                0x0020e3b8                speaker
 .bss.nxt       0x0020e3bc        0x4 build/Robot.o
                0x0020e3bc                nxt
 .bss.lcd       0x0020e3c0        0x4 build/Robot.o
                0x0020e3c0                lcd
 .bss.bt        0x0020e3c4        0x4 build/Robot.o
                0x0020e3c4                bt
 .bss.tail      0x0020e3c8        0x8 build/Robot.o
                0x0020e3c8                tail
 .bss.motorR    0x0020e3d0        0x8 build/Robot.o
                0x0020e3d0                motorR
 .bss.motorL    0x0020e3d8        0x8 build/Robot.o
                0x0020e3d8                motorL
 .bss.gyro      0x0020e3e0        0xc build/Robot.o
                0x0020e3e0                gyro
 .bss.light     0x0020e3ec        0x8 build/Robot.o
                0x0020e3ec                light
 .bss.sonar     0x0020e3f4        0x8 build/Robot.o
                0x0020e3f4                sonar
 .bss.touch     0x0020e3fc        0x8 build/Robot.o
                0x0020e3fc                touch
 .bss.logL      0x0020e404        0x1 build/Robot.o
 .bss.logR      0x0020e405        0x1 build/Robot.o
 *fill*         0x0020e406        0x2 00
 .bss._ZN9Navigator12theInstance_E
                0x0020e408        0x4 build/Navigator.o
                0x0020e408                _ZN9Navigator12theInstance_E
 .bss._ZN6Driver12theInstance_E
                0x0020e40c        0x4 build/Driver.o
                0x0020e40c                _ZN6Driver12theInstance_E
 .bss._ZN8TecMusic12theInstance_E
                0x0020e410        0x4 build/Technic.o
                0x0020e410                _ZN8TecMusic12theInstance_E
 .bss._ZZN8TecMusic6PlayerEvE5count
                0x0020e414        0x4 build/Technic.o
 .bss._ZZN8TecMusic6PlayerEvE5index
                0x0020e418        0x4 build/Technic.o
 .bss.buttons_i
                0x0020e41c        0x4 /home/nxtOSEK/ecrobot/../ecrobot/libecrobot.a(ecrobot_interface.o)
 .bss.buttons_states
                0x0020e420       0x14 /home/nxtOSEK/ecrobot/../ecrobot/libecrobot.a(ecrobot_interface.o)
 .bss.ecrobot_inputs
                0x0020e434        0x8 /home/nxtOSEK/ecrobot/../ecrobot/libecrobot.a(ecrobot_interface.o)
 .bss.systick_ms
                0x0020e43c        0x4 /home/nxtOSEK/ecrobot/../ecrobot/libecrobot.a(systick.oram)
 .bss.delayedEnable
                0x0020e440        0x1 /home/nxtOSEK/ecrobot/../ecrobot/libecrobot.a(udp.oram)
 *fill*         0x0020e441        0x3 00
 .bss.outCnt    0x0020e444        0x4 /home/nxtOSEK/ecrobot/../ecrobot/libecrobot.a(udp.oram)
 .bss.outPtr    0x0020e448        0x4 /home/nxtOSEK/ecrobot/../ecrobot/libecrobot.a(udp.oram)
 .bss.newAddress
                0x0020e44c        0x4 /home/nxtOSEK/ecrobot/../ecrobot/libecrobot.a(udp.oram)
 .bss.currentRxBank
                0x0020e450        0x4 /home/nxtOSEK/ecrobot/../ecrobot/libecrobot.a(udp.oram)
 .bss.currentFeatures
                0x0020e454        0x4 /home/nxtOSEK/ecrobot/../ecrobot/libecrobot.a(udp.oram)
 .bss.currentConfig
                0x0020e458        0x1 /home/nxtOSEK/ecrobot/../ecrobot/libecrobot.a(udp.oram)
 *fill*         0x0020e459        0x3 00
 .bss.twi_mask  0x0020e45c        0x4 /home/nxtOSEK/ecrobot/../ecrobot/libecrobot.a(twi.oram)
 .bss.twi_ptr   0x0020e460        0x4 /home/nxtOSEK/ecrobot/../ecrobot/libecrobot.a(twi.oram)
 .bss.twi_pending
                0x0020e464        0x4 /home/nxtOSEK/ecrobot/../ecrobot/libecrobot.a(twi.oram)
 .bss.twi_state
                0x0020e468        0x4 /home/nxtOSEK/ecrobot/../ecrobot/libecrobot.a(twi.oram)
 .bss.page      0x0020e46c        0x1 /home/nxtOSEK/ecrobot/../ecrobot/libecrobot.a(nxt_spi.oram)
                0x0020e46c                page
 .bss.dirty     0x0020e46d        0x1 /home/nxtOSEK/ecrobot/../ecrobot/libecrobot.a(nxt_spi.oram)
                0x0020e46d                dirty
 *fill*         0x0020e46e        0x2 00
 .bss.display   0x0020e470        0x4 /home/nxtOSEK/ecrobot/../ecrobot/libecrobot.a(nxt_spi.oram)
                0x0020e470                display
 .bss.interrupts_this_period
                0x0020e474        0x4 /home/nxtOSEK/ecrobot/../ecrobot/libecrobot.a(nxt_motors.oram)
 .bss.nxt_motor_initialised
                0x0020e478        0x4 /home/nxtOSEK/ecrobot/../ecrobot/libecrobot.a(nxt_motors.oram)
 .bss.motor     0x0020e47c       0x30 /home/nxtOSEK/ecrobot/../ecrobot/libecrobot.a(nxt_motors.oram)
 .bss.display_tick
                0x0020e4ac        0x4 /home/nxtOSEK/ecrobot/../ecrobot/libecrobot.a(display.oram)
                0x0020e4ac                display_tick
 .bss.display_array
                0x0020e4b0      0x388 /home/nxtOSEK/ecrobot/../ecrobot/libecrobot.a(display.oram)
 .bss.i2c_int_count
                0x0020e838        0x4 /home/nxtOSEK/ecrobot/../ecrobot/libecrobot.a(i2c.oram)
 .bss.i2c_port  0x0020e83c      0x170 /home/nxtOSEK/ecrobot/../ecrobot/libecrobot.a(i2c.oram)
 .bss.sound_mode
                0x0020e9ac        0x1 /home/nxtOSEK/ecrobot/../ecrobot/libecrobot.a(sound.oram)
                0x0020e9ac                sound_mode
 *fill*         0x0020e9ad        0x3 00
 .bss.in_buf_idx
                0x0020e9b0        0x4 /home/nxtOSEK/ecrobot/../ecrobot/libecrobot.a(bt.oram)
 .bss.buf_ptr   0x0020e9b4        0x4 /home/nxtOSEK/ecrobot/../ecrobot/libecrobot.a(bt.oram)
 .bss.out_buf   0x0020e9b8      0x200 /home/nxtOSEK/ecrobot/../ecrobot/libecrobot.a(bt.oram)
 .bss.out_buf_ptr
                0x0020ebb8        0x1 /home/nxtOSEK/ecrobot/../ecrobot/libecrobot.a(bt.oram)
 .bss.in_buf_in_ptr
                0x0020ebb9        0x1 /home/nxtOSEK/ecrobot/../ecrobot/libecrobot.a(bt.oram)
 .bss.in_buf    0x0020ebba      0x100 /home/nxtOSEK/ecrobot/../ecrobot/libecrobot.a(bt.oram)
 *fill*         0x0020ecba        0x2 00
 .bss.link_state
                0x0020ecbc        0x4 /home/nxtOSEK/ecrobot/../ecrobot/libecrobot.a(nxt_avr.oram)
 .bss.update_count
                0x0020ecc0        0x4 /home/nxtOSEK/ecrobot/../ecrobot/libecrobot.a(nxt_avr.oram)
 .bss.nxt_avr_stats
                0x0020ecc4       0x14 /home/nxtOSEK/ecrobot/../ecrobot/libecrobot.a(nxt_avr.oram)
 .bss.debounce_cnt
                0x0020ecd8        0x2 /home/nxtOSEK/ecrobot/../ecrobot/libecrobot.a(nxt_avr.oram)
 .bss.debounce_state
                0x0020ecda        0x2 /home/nxtOSEK/ecrobot/../ecrobot/libecrobot.a(nxt_avr.oram)
 .bss.button_state
                0x0020ecdc        0x2 /home/nxtOSEK/ecrobot/../ecrobot/libecrobot.a(nxt_avr.oram)
 .bss.prev_buttons
                0x0020ecde        0x2 /home/nxtOSEK/ecrobot/../ecrobot/libecrobot.a(nxt_avr.oram)
 .bss.from_buf  0x0020ece0        0x4 /home/nxtOSEK/ecrobot/../ecrobot/libecrobot.a(nxt_avr.oram)
 .bss.io_from_avr
                0x0020ece4        0x4 /home/nxtOSEK/ecrobot/../ecrobot/libecrobot.a(nxt_avr.oram)
 .bss.data_from_avr
                0x0020ece8       0x1a /home/nxtOSEK/ecrobot/../ecrobot/libecrobot.a(nxt_avr.oram)
 .bss.data_to_avr
                0x0020ed02        0x9 /home/nxtOSEK/ecrobot/../ecrobot/libecrobot.a(nxt_avr.oram)
 .bss.io_to_avr
                0x0020ed0b        0x8 /home/nxtOSEK/ecrobot/../ecrobot/libecrobot.a(nxt_avr.oram)
 *fill*         0x0020ed13        0x1 00
 .bss.display   0x0020ed14        0x4 /home/nxtOSEK/ecrobot/../ecrobot/libecrobot.a(nxt_lcd.oram)
 .bss.ud_thetadot_cmd_lpf
                0x0020ed18        0x4 /home/nxtOSEK/ecrobot/../ecrobot/libnxtway_gs_balancer.a(balancer.o)
 .bss.ud_theta_ref
                0x0020ed1c        0x4 /home/nxtOSEK/ecrobot/../ecrobot/libnxtway_gs_balancer.a(balancer.o)
 .bss.ud_theta_lpf
                0x0020ed20        0x4 /home/nxtOSEK/ecrobot/../ecrobot/libnxtway_gs_balancer.a(balancer.o)
 .bss.ud_psi    0x0020ed24        0x4 /home/nxtOSEK/ecrobot/../ecrobot/libnxtway_gs_balancer.a(balancer.o)
 .bss.ud_err_theta
                0x0020ed28        0x4 /home/nxtOSEK/ecrobot/../ecrobot/libnxtway_gs_balancer.a(balancer.o)
 .bss           0x0020ed2c       0x34 /home/GNUARM/bin/../lib/gcc/arm-elf/4.0.2/../../../../arm-elf/lib/thumb/interwork/libc.a(mallocr.o)
                0x0020ed5c                __malloc_top_pad
                0x0020ed58                __malloc_max_sbrked_mem
                0x0020ed2c                __malloc_current_mallinfo
                0x0020ed54                __malloc_max_total_mem
                0x0020ed60                . = ALIGN (0x10)
                0x0020ed60                __bss_end__ = .
 COMMON         0x0020ed60        0x2 build/kernel/interrupt.o
                0x0020ed60                runisr
                0x0020ed61                sus_all_cnt
 *fill*         0x0020ed62        0x2 00
 COMMON         0x0020ed64       0x10 build/kernel/osctl.o
                0x0020ed64                callevel
                0x0020ed65                _errorhook_svcid
                0x0020ed66                appmode
                0x0020ed68                _errorhook_par1
                0x0020ed6c                _errorhook_par3
                0x0020ed70                _errorhook_par2
 COMMON         0x0020ed74        0x3 build/kernel/task.o
                0x0020ed74                runtsk
                0x0020ed75                schedtsk
                0x0020ed76                nextpri
 *fill*         0x0020ed77        0x1 00
 COMMON         0x0020ed78       0x40 build/./kernel_cfg.o
                0x0020ed78                tcb_waievt
                0x0020ed80                rescb_prevpri
                0x0020ed81                almcb_prev
                0x0020ed82                tcb_lastres
                0x0020ed84                almcb_almval
                0x0020ed88                tcxb_pc
                0x0020ed90                tcb_next
                0x0020ed92                tcb_curpri
                0x0020ed94                tcb_tstat
                0x0020ed96                isrcb_lastres
                0x0020ed97                cntcb_almque
                0x0020ed98                rescb_prevres
                0x0020ed99                tcb_actcnt
                0x0020ed9c                tcb_curevt
                0x0020eda4                almcb_cycle
                0x0020eda8                tcxb_sp
                0x0020edb0                almcb_next
                0x0020edb4                cntcb_curval
 COMMON         0x0020edb8       0x44 /home/nxtOSEK/ecrobot/../ecrobot/libecrobot.a(uart.oram)
                0x0020edb8                uart
 COMMON         0x0020edfc        0x4 /home/nxtOSEK/ecrobot/../ecrobot/libecrobot.a(data_abort.oram)
                0x0020edfc                data_abort_pc
 COMMON         0x0020ee00        0x8 /home/nxtOSEK/ecrobot/../ecrobot/libecrobot.a(display.oram)
                0x0020ee00                display_x
                0x0020ee04                display_y
 COMMON         0x0020ee08      0x31c /home/nxtOSEK/ecrobot/../ecrobot/libecrobot.a(sound.oram)
                0x0020ee08                sample
                0x0020d1c0                __bss_start__ = ADDR (.bss)
                0x0020f124                __bss_end__ = (ADDR (.bss) + SIZEOF (.bss))
                0x0020f124                PROVIDE (end, .)

.heap_area      0x0020f124      0xa54
                0x0020fb78                . = (. + (0x20fb78 - end))
 *fill*         0x0020f124      0xa54 00

.stack          0x0020fb78      0x488
                0x0020fbf8                . = (. + 0x80)
 *fill*         0x0020fb78       0x80 00
                0x0020fc00                . = ALIGN (0x10)
 *fill*         0x0020fbf8        0x8 00
                0x0020fc00                __irq_stack__ = .
                0x0020fc00                __system_stack_bottom__ = .
                0x00210000                . = (. + 0x400)
 *fill*         0x0020fc00      0x400 00
                0x00210000                . = ALIGN (0x10)
                0x00210000                __system_stack__ = .
                0x00210000                __system_stack_top__ = .
                0x0020fb78                __stack_start__ = ADDR (.stack)
                0x00210000                __stack_end__ = (ADDR (.stack) + SIZEOF (.stack))
OUTPUT(BSNro_rxe.elf elf32-littlearm)

.comment        0x00000000      0x6e4
 .comment       0x00000000       0x12 build/kernel/alarm.o
 .comment       0x00000012       0x12 build/kernel/event.o
 .comment       0x00000024       0x12 build/kernel/interrupt.o
 .comment       0x00000036       0x12 build/kernel/osctl.o
 .comment       0x00000048       0x12 build/kernel/resource.o
 .comment       0x0000005a       0x12 build/kernel/task.o
 .comment       0x0000006c       0x12 build/kernel/task_manage.o
 .comment       0x0000007e       0x12 build/config/at91sam7s-gnu/cpu_config.o
 .comment       0x00000090       0x12 build/config/at91sam7s-gnu/lego_nxt/sys_config.o
 .comment       0x000000a2       0x12 build/./kernel_cfg.o
 .comment       0x000000b4       0x12 build/rtoscalls.o
 .comment       0x000000c6       0x12 build/syscalls.o
 .comment       0x000000d8       0x12 build/ecrobot_bluetooth.o
 .comment       0x000000ea       0x12 build/ecrobot_base.o
 .comment       0x000000fc       0x12 build/ecrobot.o
 .comment       0x0000010e       0x12 build/balancer_param.o
 .comment       0x00000120       0x12 build/syslib/at91sam7s-gnu/lego_nxt/hw_sys_timer.oram
 .comment       0x00000132       0x12 build/utils.o
 .comment       0x00000144       0x12 build/CourseInfo.o
 .comment       0x00000156       0x12 build/Robot.o
 .comment       0x00000168       0x12 build/Navigator.o
 .comment       0x0000017a       0x12 build/Driver.o
 .comment       0x0000018c       0x12 build/Mission.o
 .comment       0x0000019e       0x12 build/PositionEstimation.o
 .comment       0x000001b0       0x12 build/MarkerCheck.o
 .comment       0x000001c2       0x12 build/Technic.o
 .comment       0x000001d4       0x12 build/Vec.o
 .comment       0x000001e6       0x12 build/TechBezierTrace.o
 .comment       0x000001f8       0x12 build/PIDController.o
 .comment       0x0000020a       0x12 /home/nxtOSEK/ecrobot/../ecrobot/libecrobot++.a(Bluetooth.o)
 .comment       0x0000021c       0x12 /home/nxtOSEK/ecrobot/../ecrobot/libecrobot++.a(Clock.o)
 .comment       0x0000022e       0x12 /home/nxtOSEK/ecrobot/../ecrobot/libecrobot++.a(GyroSensor.o)
 .comment       0x00000240       0x12 /home/nxtOSEK/ecrobot/../ecrobot/libecrobot++.a(I2c.o)
 .comment       0x00000252       0x12 /home/nxtOSEK/ecrobot/../ecrobot/libecrobot++.a(Lcd.o)
 .comment       0x00000264       0x12 /home/nxtOSEK/ecrobot/../ecrobot/libecrobot++.a(LightSensor.o)
 .comment       0x00000276       0x12 /home/nxtOSEK/ecrobot/../ecrobot/libecrobot++.a(Motor.o)
 .comment       0x00000288       0x12 /home/nxtOSEK/ecrobot/../ecrobot/libecrobot++.a(Nxt.o)
 .comment       0x0000029a       0x12 /home/nxtOSEK/ecrobot/../ecrobot/libecrobot++.a(SonarSensor.o)
 .comment       0x000002ac       0x12 /home/nxtOSEK/ecrobot/../ecrobot/libecrobot++.a(Speaker.o)
 .comment       0x000002be       0x12 /home/nxtOSEK/ecrobot/../ecrobot/libecrobot++.a(TouchSensor.o)
 .comment       0x000002d0       0x12 /home/nxtOSEK/ecrobot/../ecrobot/libecrobot++.a(BTConnection.o)
 .comment       0x000002e2       0x12 /home/nxtOSEK/ecrobot/../ecrobot/libecrobot++.a(Daq.o)
 .comment       0x000002f4       0x12 /home/nxtOSEK/ecrobot/../ecrobot/libecrobot++.a(New.o)
 .comment       0x00000306       0x12 /home/nxtOSEK/ecrobot/../ecrobot/libecrobot.a(ecrobot_device_hook.o)
 .comment       0x00000318       0x12 /home/nxtOSEK/ecrobot/../ecrobot/libecrobot.a(ecrobot_interface.o)
 .comment       0x0000032a       0x12 /home/nxtOSEK/ecrobot/../ecrobot/libecrobot.a(colorsensor.o)
 .comment       0x0000033c       0x12 /home/nxtOSEK/ecrobot/../ecrobot/libecrobot.a(osek_hook.o)
 .comment       0x0000034e       0x12 /home/nxtOSEK/ecrobot/../ecrobot/libecrobot.a(uart.oram)
 .comment       0x00000360       0x12 /home/nxtOSEK/ecrobot/../ecrobot/libecrobot.a(systick.oram)
 .comment       0x00000372       0x12 /home/nxtOSEK/ecrobot/../ecrobot/libecrobot.a(byte_fifo.oram)
 .comment       0x00000384       0x12 /home/nxtOSEK/ecrobot/../ecrobot/libecrobot.a(aic.oram)
 .comment       0x00000396       0x12 /home/nxtOSEK/ecrobot/../ecrobot/libecrobot.a(udp.oram)
 .comment       0x000003a8       0x12 /home/nxtOSEK/ecrobot/../ecrobot/libecrobot.a(twi.oram)
 .comment       0x000003ba       0x12 /home/nxtOSEK/ecrobot/../ecrobot/libecrobot.a(nxt_spi.oram)
 .comment       0x000003cc       0x12 /home/nxtOSEK/ecrobot/../ecrobot/libecrobot.a(nxt_motors.oram)
 .comment       0x000003de       0x12 /home/nxtOSEK/ecrobot/../ecrobot/libecrobot.a(data_abort.oram)
 .comment       0x000003f0       0x12 /home/nxtOSEK/ecrobot/../ecrobot/libecrobot.a(display.oram)
 .comment       0x00000402       0x12 /home/nxtOSEK/ecrobot/../ecrobot/libecrobot.a(i2c.oram)
 .comment       0x00000414       0x12 /home/nxtOSEK/ecrobot/../ecrobot/libecrobot.a(sound.oram)
 .comment       0x00000426       0x12 /home/nxtOSEK/ecrobot/../ecrobot/libecrobot.a(bt.oram)
 .comment       0x00000438       0x12 /home/nxtOSEK/ecrobot/../ecrobot/libecrobot.a(nxt_avr.oram)
 .comment       0x0000044a       0x12 /home/nxtOSEK/ecrobot/../ecrobot/libecrobot.a(sensors.oram)
 .comment       0x0000045c       0x12 /home/nxtOSEK/ecrobot/../ecrobot/libecrobot.a(sensors1.oram)
 .comment       0x0000046e       0x12 /home/nxtOSEK/ecrobot/../ecrobot/libecrobot.a(nxt_lcd.oram)
 .comment       0x00000480       0x12 /home/nxtOSEK/ecrobot/../ecrobot/libecrobot.a(flash_loader.oram)
 .comment       0x00000492       0x12 /home/nxtOSEK/ecrobot/../ecrobot/libecrobot.a(ecrobot_usb.o)
 .comment       0x000004a4       0x12 /home/nxtOSEK/ecrobot/../ecrobot/libecrobot.a(flashprog.oram)
 .comment       0x000004b6       0x12 /home/nxtOSEK/ecrobot/../ecrobot/libnxtway_gs_balancer.a(balancer.o)
 .comment       0x000004c8       0x12 /home/GNUARM/bin/../lib/gcc/arm-elf/4.0.2/../../../../arm-elf/lib/thumb/interwork/libm.a(s_cos.o)
 .comment       0x000004da       0x12 /home/GNUARM/bin/../lib/gcc/arm-elf/4.0.2/../../../../arm-elf/lib/thumb/interwork/libm.a(s_sin.o)
 .comment       0x000004ec       0x12 /home/GNUARM/bin/../lib/gcc/arm-elf/4.0.2/../../../../arm-elf/lib/thumb/interwork/libm.a(w_sqrt.o)
 .comment       0x000004fe       0x12 /home/GNUARM/bin/../lib/gcc/arm-elf/4.0.2/../../../../arm-elf/lib/thumb/interwork/libm.a(e_rem_pio2.o)
 .comment       0x00000510       0x12 /home/GNUARM/bin/../lib/gcc/arm-elf/4.0.2/../../../../arm-elf/lib/thumb/interwork/libm.a(e_sqrt.o)
 .comment       0x00000522       0x12 /home/GNUARM/bin/../lib/gcc/arm-elf/4.0.2/../../../../arm-elf/lib/thumb/interwork/libm.a(k_cos.o)
 .comment       0x00000534       0x12 /home/GNUARM/bin/../lib/gcc/arm-elf/4.0.2/../../../../arm-elf/lib/thumb/interwork/libm.a(k_rem_pio2.o)
 .comment       0x00000546       0x12 /home/GNUARM/bin/../lib/gcc/arm-elf/4.0.2/../../../../arm-elf/lib/thumb/interwork/libm.a(k_sin.o)
 .comment       0x00000558       0x12 /home/GNUARM/bin/../lib/gcc/arm-elf/4.0.2/../../../../arm-elf/lib/thumb/interwork/libm.a(s_fabs.o)
 .comment       0x0000056a       0x12 /home/GNUARM/bin/../lib/gcc/arm-elf/4.0.2/../../../../arm-elf/lib/thumb/interwork/libm.a(s_floor.o)
 .comment       0x0000057c       0x12 /home/GNUARM/bin/../lib/gcc/arm-elf/4.0.2/../../../../arm-elf/lib/thumb/interwork/libm.a(s_isnan.o)
 .comment       0x0000058e       0x12 /home/GNUARM/bin/../lib/gcc/arm-elf/4.0.2/../../../../arm-elf/lib/thumb/interwork/libm.a(s_lib_ver.o)
 .comment       0x000005a0       0x12 /home/GNUARM/bin/../lib/gcc/arm-elf/4.0.2/../../../../arm-elf/lib/thumb/interwork/libm.a(s_matherr.o)
 .comment       0x000005b2       0x12 /home/GNUARM/bin/../lib/gcc/arm-elf/4.0.2/../../../../arm-elf/lib/thumb/interwork/libm.a(s_scalbn.o)
 .comment       0x000005c4       0x12 /home/GNUARM/bin/../lib/gcc/arm-elf/4.0.2/../../../../arm-elf/lib/thumb/interwork/libm.a(s_copysign.o)
 .comment       0x000005d6       0x12 /home/GNUARM/bin/../lib/gcc/arm-elf/4.0.2/thumb/interwork/libgcc.a(_muldi3.o)
 .comment       0x000005e8       0x12 /home/GNUARM/bin/../lib/gcc/arm-elf/4.0.2/thumb/interwork/libgcc.a(_divdi3.o)
 .comment       0x000005fa       0x12 /home/GNUARM/bin/../lib/gcc/arm-elf/4.0.2/thumb/interwork/libgcc.a(_clz.o)
 .comment       0x0000060c       0x12 /home/GNUARM/bin/../lib/gcc/arm-elf/4.0.2/../../../../arm-elf/lib/thumb/interwork/libc.a(errno.o)
 .comment       0x0000061e       0x12 /home/GNUARM/bin/../lib/gcc/arm-elf/4.0.2/../../../../arm-elf/lib/thumb/interwork/libc.a(impure.o)
 .comment       0x00000630       0x12 /home/GNUARM/bin/../lib/gcc/arm-elf/4.0.2/../../../../arm-elf/lib/thumb/interwork/libc.a(malloc.o)
 .comment       0x00000642       0x12 /home/GNUARM/bin/../lib/gcc/arm-elf/4.0.2/../../../../arm-elf/lib/thumb/interwork/libc.a(mallocr.o)
 .comment       0x00000654       0x12 /home/GNUARM/bin/../lib/gcc/arm-elf/4.0.2/../../../../arm-elf/lib/thumb/interwork/libc.a(memcpy.o)
 .comment       0x00000666       0x12 /home/GNUARM/bin/../lib/gcc/arm-elf/4.0.2/../../../../arm-elf/lib/thumb/interwork/libc.a(memset.o)
 .comment       0x00000678       0x12 /home/GNUARM/bin/../lib/gcc/arm-elf/4.0.2/../../../../arm-elf/lib/thumb/interwork/libc.a(mlock.o)
 .comment       0x0000068a       0x12 /home/GNUARM/bin/../lib/gcc/arm-elf/4.0.2/../../../../arm-elf/lib/thumb/interwork/libc.a(strcmp.o)
 .comment       0x0000069c       0x12 /home/GNUARM/bin/../lib/gcc/arm-elf/4.0.2/../../../../arm-elf/lib/thumb/interwork/libc.a(strcpy.o)
 .comment       0x000006ae       0x12 /home/GNUARM/bin/../lib/gcc/arm-elf/4.0.2/../../../../arm-elf/lib/thumb/interwork/libc.a(strlen.o)
 .comment       0x000006c0       0x12 /home/GNUARM/bin/../lib/gcc/arm-elf/4.0.2/../../../../arm-elf/lib/thumb/interwork/libc.a(strncpy.o)
 .comment       0x000006d2       0x12 /home/GNUARM/bin/../lib/gcc/arm-elf/4.0.2/../../../../arm-elf/lib/thumb/interwork/libc.a(freer.o)

.debug_abbrev   0x00000000     0x1cbd
 .debug_abbrev  0x00000000       0x9a /home/GNUARM/bin/../lib/gcc/arm-elf/4.0.2/../../../../arm-elf/lib/thumb/interwork/libm.a(s_cos.o)
 .debug_abbrev  0x0000009a       0x9a /home/GNUARM/bin/../lib/gcc/arm-elf/4.0.2/../../../../arm-elf/lib/thumb/interwork/libm.a(s_sin.o)
 .debug_abbrev  0x00000134       0xd6 /home/GNUARM/bin/../lib/gcc/arm-elf/4.0.2/../../../../arm-elf/lib/thumb/interwork/libm.a(w_sqrt.o)
 .debug_abbrev  0x0000020a      0x144 /home/GNUARM/bin/../lib/gcc/arm-elf/4.0.2/../../../../arm-elf/lib/thumb/interwork/libm.a(e_rem_pio2.o)
 .debug_abbrev  0x0000034e      0x122 /home/GNUARM/bin/../lib/gcc/arm-elf/4.0.2/../../../../arm-elf/lib/thumb/interwork/libm.a(e_sqrt.o)
 .debug_abbrev  0x00000470       0xec /home/GNUARM/bin/../lib/gcc/arm-elf/4.0.2/../../../../arm-elf/lib/thumb/interwork/libm.a(k_cos.o)
 .debug_abbrev  0x0000055c      0x104 /home/GNUARM/bin/../lib/gcc/arm-elf/4.0.2/../../../../arm-elf/lib/thumb/interwork/libm.a(k_rem_pio2.o)
 .debug_abbrev  0x00000660       0xaf /home/GNUARM/bin/../lib/gcc/arm-elf/4.0.2/../../../../arm-elf/lib/thumb/interwork/libm.a(k_sin.o)
 .debug_abbrev  0x0000070f       0xc5 /home/GNUARM/bin/../lib/gcc/arm-elf/4.0.2/../../../../arm-elf/lib/thumb/interwork/libm.a(s_fabs.o)
 .debug_abbrev  0x000007d4       0xf9 /home/GNUARM/bin/../lib/gcc/arm-elf/4.0.2/../../../../arm-elf/lib/thumb/interwork/libm.a(s_floor.o)
 .debug_abbrev  0x000008cd       0x79 /home/GNUARM/bin/../lib/gcc/arm-elf/4.0.2/../../../../arm-elf/lib/thumb/interwork/libm.a(s_isnan.o)
 .debug_abbrev  0x00000946       0x5a /home/GNUARM/bin/../lib/gcc/arm-elf/4.0.2/../../../../arm-elf/lib/thumb/interwork/libm.a(s_lib_ver.o)
 .debug_abbrev  0x000009a0       0x95 /home/GNUARM/bin/../lib/gcc/arm-elf/4.0.2/../../../../arm-elf/lib/thumb/interwork/libm.a(s_matherr.o)
 .debug_abbrev  0x00000a35       0xf7 /home/GNUARM/bin/../lib/gcc/arm-elf/4.0.2/../../../../arm-elf/lib/thumb/interwork/libm.a(s_scalbn.o)
 .debug_abbrev  0x00000b2c       0xe8 /home/GNUARM/bin/../lib/gcc/arm-elf/4.0.2/../../../../arm-elf/lib/thumb/interwork/libm.a(s_copysign.o)
 .debug_abbrev  0x00000c14       0x14 /home/GNUARM/bin/../lib/gcc/arm-elf/4.0.2/thumb/interwork/libgcc.a(_udivsi3.o)
 .debug_abbrev  0x00000c28       0x14 /home/GNUARM/bin/../lib/gcc/arm-elf/4.0.2/thumb/interwork/libgcc.a(_divsi3.o)
 .debug_abbrev  0x00000c3c       0x14 /home/GNUARM/bin/../lib/gcc/arm-elf/4.0.2/thumb/interwork/libgcc.a(_umodsi3.o)
 .debug_abbrev  0x00000c50       0x14 /home/GNUARM/bin/../lib/gcc/arm-elf/4.0.2/thumb/interwork/libgcc.a(_modsi3.o)
 .debug_abbrev  0x00000c64       0x14 /home/GNUARM/bin/../lib/gcc/arm-elf/4.0.2/thumb/interwork/libgcc.a(_dvmd_tls.o)
 .debug_abbrev  0x00000c78       0x14 /home/GNUARM/bin/../lib/gcc/arm-elf/4.0.2/thumb/interwork/libgcc.a(_addsubdf3.o)
 .debug_abbrev  0x00000c8c       0x14 /home/GNUARM/bin/../lib/gcc/arm-elf/4.0.2/thumb/interwork/libgcc.a(_muldivdf3.o)
 .debug_abbrev  0x00000ca0       0x14 /home/GNUARM/bin/../lib/gcc/arm-elf/4.0.2/thumb/interwork/libgcc.a(_cmpdf2.o)
 .debug_abbrev  0x00000cb4       0x14 /home/GNUARM/bin/../lib/gcc/arm-elf/4.0.2/thumb/interwork/libgcc.a(_fixdfsi.o)
 .debug_abbrev  0x00000cc8       0x14 /home/GNUARM/bin/../lib/gcc/arm-elf/4.0.2/thumb/interwork/libgcc.a(_truncdfsf2.o)
 .debug_abbrev  0x00000cdc       0x14 /home/GNUARM/bin/../lib/gcc/arm-elf/4.0.2/thumb/interwork/libgcc.a(_addsubsf3.o)
 .debug_abbrev  0x00000cf0       0x14 /home/GNUARM/bin/../lib/gcc/arm-elf/4.0.2/thumb/interwork/libgcc.a(_muldivsf3.o)
 .debug_abbrev  0x00000d04       0x14 /home/GNUARM/bin/../lib/gcc/arm-elf/4.0.2/thumb/interwork/libgcc.a(_cmpsf2.o)
 .debug_abbrev  0x00000d18       0x14 /home/GNUARM/bin/../lib/gcc/arm-elf/4.0.2/thumb/interwork/libgcc.a(_fixsfsi.o)
 .debug_abbrev  0x00000d2c       0xec /home/GNUARM/bin/../lib/gcc/arm-elf/4.0.2/thumb/interwork/libgcc.a(_muldi3.o)
 .debug_abbrev  0x00000e18      0x174 /home/GNUARM/bin/../lib/gcc/arm-elf/4.0.2/thumb/interwork/libgcc.a(_divdi3.o)
 .debug_abbrev  0x00000f8c       0x61 /home/GNUARM/bin/../lib/gcc/arm-elf/4.0.2/thumb/interwork/libgcc.a(_clz.o)
 .debug_abbrev  0x00000fed      0x15f /home/GNUARM/bin/../lib/gcc/arm-elf/4.0.2/../../../../arm-elf/lib/thumb/interwork/libc.a(errno.o)
 .debug_abbrev  0x0000114c      0x157 /home/GNUARM/bin/../lib/gcc/arm-elf/4.0.2/../../../../arm-elf/lib/thumb/interwork/libc.a(impure.o)
 .debug_abbrev  0x000012a3      0x187 /home/GNUARM/bin/../lib/gcc/arm-elf/4.0.2/../../../../arm-elf/lib/thumb/interwork/libc.a(malloc.o)
 .debug_abbrev  0x0000142a      0x214 /home/GNUARM/bin/../lib/gcc/arm-elf/4.0.2/../../../../arm-elf/lib/thumb/interwork/libc.a(mallocr.o)
 .debug_abbrev  0x0000163e       0x99 /home/GNUARM/bin/../lib/gcc/arm-elf/4.0.2/../../../../arm-elf/lib/thumb/interwork/libc.a(memcpy.o)
 .debug_abbrev  0x000016d7       0x9a /home/GNUARM/bin/../lib/gcc/arm-elf/4.0.2/../../../../arm-elf/lib/thumb/interwork/libc.a(memset.o)
 .debug_abbrev  0x00001771      0x16a /home/GNUARM/bin/../lib/gcc/arm-elf/4.0.2/../../../../arm-elf/lib/thumb/interwork/libc.a(mlock.o)
 .debug_abbrev  0x000018db       0x71 /home/GNUARM/bin/../lib/gcc/arm-elf/4.0.2/../../../../arm-elf/lib/thumb/interwork/libc.a(strcmp.o)
 .debug_abbrev  0x0000194c       0x80 /home/GNUARM/bin/../lib/gcc/arm-elf/4.0.2/../../../../arm-elf/lib/thumb/interwork/libc.a(strcpy.o)
 .debug_abbrev  0x000019cc       0x8b /home/GNUARM/bin/../lib/gcc/arm-elf/4.0.2/../../../../arm-elf/lib/thumb/interwork/libc.a(strlen.o)
 .debug_abbrev  0x00001a57       0x8d /home/GNUARM/bin/../lib/gcc/arm-elf/4.0.2/../../../../arm-elf/lib/thumb/interwork/libc.a(strncpy.o)
 .debug_abbrev  0x00001ae4      0x1d9 /home/GNUARM/bin/../lib/gcc/arm-elf/4.0.2/../../../../arm-elf/lib/thumb/interwork/libc.a(freer.o)

.debug_info     0x00000000     0x6c12
 .debug_info    0x00000000      0x101 /home/GNUARM/bin/../lib/gcc/arm-elf/4.0.2/../../../../arm-elf/lib/thumb/interwork/libm.a(s_cos.o)
 .debug_info    0x00000101      0x101 /home/GNUARM/bin/../lib/gcc/arm-elf/4.0.2/../../../../arm-elf/lib/thumb/interwork/libm.a(s_sin.o)
 .debug_info    0x00000202      0x17c /home/GNUARM/bin/../lib/gcc/arm-elf/4.0.2/../../../../arm-elf/lib/thumb/interwork/libm.a(w_sqrt.o)
 .debug_info    0x0000037e      0x35d /home/GNUARM/bin/../lib/gcc/arm-elf/4.0.2/../../../../arm-elf/lib/thumb/interwork/libm.a(e_rem_pio2.o)
 .debug_info    0x000006db      0x233 /home/GNUARM/bin/../lib/gcc/arm-elf/4.0.2/../../../../arm-elf/lib/thumb/interwork/libm.a(e_sqrt.o)
 .debug_info    0x0000090e      0x21f /home/GNUARM/bin/../lib/gcc/arm-elf/4.0.2/../../../../arm-elf/lib/thumb/interwork/libm.a(k_cos.o)
 .debug_info    0x00000b2d      0x2e4 /home/GNUARM/bin/../lib/gcc/arm-elf/4.0.2/../../../../arm-elf/lib/thumb/interwork/libm.a(k_rem_pio2.o)
 .debug_info    0x00000e11      0x19a /home/GNUARM/bin/../lib/gcc/arm-elf/4.0.2/../../../../arm-elf/lib/thumb/interwork/libm.a(k_sin.o)
 .debug_info    0x00000fab      0x13d /home/GNUARM/bin/../lib/gcc/arm-elf/4.0.2/../../../../arm-elf/lib/thumb/interwork/libm.a(s_fabs.o)
 .debug_info    0x000010e8      0x1b8 /home/GNUARM/bin/../lib/gcc/arm-elf/4.0.2/../../../../arm-elf/lib/thumb/interwork/libm.a(s_floor.o)
 .debug_info    0x000012a0       0xd6 /home/GNUARM/bin/../lib/gcc/arm-elf/4.0.2/../../../../arm-elf/lib/thumb/interwork/libm.a(s_isnan.o)
 .debug_info    0x00001376       0xcc /home/GNUARM/bin/../lib/gcc/arm-elf/4.0.2/../../../../arm-elf/lib/thumb/interwork/libm.a(s_lib_ver.o)
 .debug_info    0x00001442      0x136 /home/GNUARM/bin/../lib/gcc/arm-elf/4.0.2/../../../../arm-elf/lib/thumb/interwork/libm.a(s_matherr.o)
 .debug_info    0x00001578      0x1e5 /home/GNUARM/bin/../lib/gcc/arm-elf/4.0.2/../../../../arm-elf/lib/thumb/interwork/libm.a(s_scalbn.o)
 .debug_info    0x0000175d      0x18c /home/GNUARM/bin/../lib/gcc/arm-elf/4.0.2/../../../../arm-elf/lib/thumb/interwork/libm.a(s_copysign.o)
 .debug_info    0x000018e9       0x6a /home/GNUARM/bin/../lib/gcc/arm-elf/4.0.2/thumb/interwork/libgcc.a(_udivsi3.o)
 .debug_info    0x00001953       0x6a /home/GNUARM/bin/../lib/gcc/arm-elf/4.0.2/thumb/interwork/libgcc.a(_divsi3.o)
 .debug_info    0x000019bd       0x6a /home/GNUARM/bin/../lib/gcc/arm-elf/4.0.2/thumb/interwork/libgcc.a(_umodsi3.o)
 .debug_info    0x00001a27       0x6a /home/GNUARM/bin/../lib/gcc/arm-elf/4.0.2/thumb/interwork/libgcc.a(_modsi3.o)
 .debug_info    0x00001a91       0x6a /home/GNUARM/bin/../lib/gcc/arm-elf/4.0.2/thumb/interwork/libgcc.a(_dvmd_tls.o)
 .debug_info    0x00001afb       0x69 /home/GNUARM/bin/../lib/gcc/arm-elf/4.0.2/thumb/interwork/libgcc.a(_addsubdf3.o)
 .debug_info    0x00001b64       0x69 /home/GNUARM/bin/../lib/gcc/arm-elf/4.0.2/thumb/interwork/libgcc.a(_muldivdf3.o)
 .debug_info    0x00001bcd       0x69 /home/GNUARM/bin/../lib/gcc/arm-elf/4.0.2/thumb/interwork/libgcc.a(_cmpdf2.o)
 .debug_info    0x00001c36       0x69 /home/GNUARM/bin/../lib/gcc/arm-elf/4.0.2/thumb/interwork/libgcc.a(_fixdfsi.o)
 .debug_info    0x00001c9f       0x69 /home/GNUARM/bin/../lib/gcc/arm-elf/4.0.2/thumb/interwork/libgcc.a(_truncdfsf2.o)
 .debug_info    0x00001d08       0x69 /home/GNUARM/bin/../lib/gcc/arm-elf/4.0.2/thumb/interwork/libgcc.a(_addsubsf3.o)
 .debug_info    0x00001d71       0x69 /home/GNUARM/bin/../lib/gcc/arm-elf/4.0.2/thumb/interwork/libgcc.a(_muldivsf3.o)
 .debug_info    0x00001dda       0x69 /home/GNUARM/bin/../lib/gcc/arm-elf/4.0.2/thumb/interwork/libgcc.a(_cmpsf2.o)
 .debug_info    0x00001e43       0x69 /home/GNUARM/bin/../lib/gcc/arm-elf/4.0.2/thumb/interwork/libgcc.a(_fixsfsi.o)
 .debug_info    0x00001eac      0x20e /home/GNUARM/bin/../lib/gcc/arm-elf/4.0.2/thumb/interwork/libgcc.a(_muldi3.o)
 .debug_info    0x000020ba      0x758 /home/GNUARM/bin/../lib/gcc/arm-elf/4.0.2/thumb/interwork/libgcc.a(_divdi3.o)
 .debug_info    0x00002812       0xc9 /home/GNUARM/bin/../lib/gcc/arm-elf/4.0.2/thumb/interwork/libgcc.a(_clz.o)
 .debug_info    0x000028db      0x914 /home/GNUARM/bin/../lib/gcc/arm-elf/4.0.2/../../../../arm-elf/lib/thumb/interwork/libc.a(errno.o)
 .debug_info    0x000031ef      0x922 /home/GNUARM/bin/../lib/gcc/arm-elf/4.0.2/../../../../arm-elf/lib/thumb/interwork/libc.a(impure.o)
 .debug_info    0x00003b11      0x955 /home/GNUARM/bin/../lib/gcc/arm-elf/4.0.2/../../../../arm-elf/lib/thumb/interwork/libc.a(malloc.o)
 .debug_info    0x00004466      0xcbd /home/GNUARM/bin/../lib/gcc/arm-elf/4.0.2/../../../../arm-elf/lib/thumb/interwork/libc.a(mallocr.o)
 .debug_info    0x00005123      0x10d /home/GNUARM/bin/../lib/gcc/arm-elf/4.0.2/../../../../arm-elf/lib/thumb/interwork/libc.a(memcpy.o)
 .debug_info    0x00005230      0x111 /home/GNUARM/bin/../lib/gcc/arm-elf/4.0.2/../../../../arm-elf/lib/thumb/interwork/libc.a(memset.o)
 .debug_info    0x00005341      0x93e /home/GNUARM/bin/../lib/gcc/arm-elf/4.0.2/../../../../arm-elf/lib/thumb/interwork/libc.a(mlock.o)
 .debug_info    0x00005c7f       0xd9 /home/GNUARM/bin/../lib/gcc/arm-elf/4.0.2/../../../../arm-elf/lib/thumb/interwork/libc.a(strcmp.o)
 .debug_info    0x00005d58      0x10c /home/GNUARM/bin/../lib/gcc/arm-elf/4.0.2/../../../../arm-elf/lib/thumb/interwork/libc.a(strcpy.o)
 .debug_info    0x00005e64       0xd5 /home/GNUARM/bin/../lib/gcc/arm-elf/4.0.2/../../../../arm-elf/lib/thumb/interwork/libc.a(strlen.o)
 .debug_info    0x00005f39      0x126 /home/GNUARM/bin/../lib/gcc/arm-elf/4.0.2/../../../../arm-elf/lib/thumb/interwork/libc.a(strncpy.o)
 .debug_info    0x0000605f      0xbb3 /home/GNUARM/bin/../lib/gcc/arm-elf/4.0.2/../../../../arm-elf/lib/thumb/interwork/libc.a(freer.o)

.debug_line     0x00000000     0x24fb
 .debug_line    0x00000000       0xc0 /home/GNUARM/bin/../lib/gcc/arm-elf/4.0.2/../../../../arm-elf/lib/thumb/interwork/libm.a(s_cos.o)
 .debug_line    0x000000c0       0xc1 /home/GNUARM/bin/../lib/gcc/arm-elf/4.0.2/../../../../arm-elf/lib/thumb/interwork/libm.a(s_sin.o)
 .debug_line    0x00000181       0xbc /home/GNUARM/bin/../lib/gcc/arm-elf/4.0.2/../../../../arm-elf/lib/thumb/interwork/libm.a(w_sqrt.o)
 .debug_line    0x0000023d      0x173 /home/GNUARM/bin/../lib/gcc/arm-elf/4.0.2/../../../../arm-elf/lib/thumb/interwork/libm.a(e_rem_pio2.o)
 .debug_line    0x000003b0      0x168 /home/GNUARM/bin/../lib/gcc/arm-elf/4.0.2/../../../../arm-elf/lib/thumb/interwork/libm.a(e_sqrt.o)
 .debug_line    0x00000518      0x112 /home/GNUARM/bin/../lib/gcc/arm-elf/4.0.2/../../../../arm-elf/lib/thumb/interwork/libm.a(k_cos.o)
 .debug_line    0x0000062a      0x196 /home/GNUARM/bin/../lib/gcc/arm-elf/4.0.2/../../../../arm-elf/lib/thumb/interwork/libm.a(k_rem_pio2.o)
 .debug_line    0x000007c0       0xb8 /home/GNUARM/bin/../lib/gcc/arm-elf/4.0.2/../../../../arm-elf/lib/thumb/interwork/libm.a(k_sin.o)
 .debug_line    0x00000878       0xf3 /home/GNUARM/bin/../lib/gcc/arm-elf/4.0.2/../../../../arm-elf/lib/thumb/interwork/libm.a(s_fabs.o)
 .debug_line    0x0000096b      0x11c /home/GNUARM/bin/../lib/gcc/arm-elf/4.0.2/../../../../arm-elf/lib/thumb/interwork/libm.a(s_floor.o)
 .debug_line    0x00000a87       0xa9 /home/GNUARM/bin/../lib/gcc/arm-elf/4.0.2/../../../../arm-elf/lib/thumb/interwork/libm.a(s_isnan.o)
 .debug_line    0x00000b30       0x92 /home/GNUARM/bin/../lib/gcc/arm-elf/4.0.2/../../../../arm-elf/lib/thumb/interwork/libm.a(s_lib_ver.o)
 .debug_line    0x00000bc2       0xa3 /home/GNUARM/bin/../lib/gcc/arm-elf/4.0.2/../../../../arm-elf/lib/thumb/interwork/libm.a(s_matherr.o)
 .debug_line    0x00000c65       0xd9 /home/GNUARM/bin/../lib/gcc/arm-elf/4.0.2/../../../../arm-elf/lib/thumb/interwork/libm.a(s_scalbn.o)
 .debug_line    0x00000d3e       0xbe /home/GNUARM/bin/../lib/gcc/arm-elf/4.0.2/../../../../arm-elf/lib/thumb/interwork/libm.a(s_copysign.o)
 .debug_line    0x00000dfc       0x70 /home/GNUARM/bin/../lib/gcc/arm-elf/4.0.2/thumb/interwork/libgcc.a(_udivsi3.o)
 .debug_line    0x00000e6c       0x7c /home/GNUARM/bin/../lib/gcc/arm-elf/4.0.2/thumb/interwork/libgcc.a(_divsi3.o)
 .debug_line    0x00000ee8       0x68 /home/GNUARM/bin/../lib/gcc/arm-elf/4.0.2/thumb/interwork/libgcc.a(_umodsi3.o)
 .debug_line    0x00000f50       0x71 /home/GNUARM/bin/../lib/gcc/arm-elf/4.0.2/thumb/interwork/libgcc.a(_modsi3.o)
 .debug_line    0x00000fc1       0x5a /home/GNUARM/bin/../lib/gcc/arm-elf/4.0.2/thumb/interwork/libgcc.a(_dvmd_tls.o)
 .debug_line    0x0000101b      0x162 /home/GNUARM/bin/../lib/gcc/arm-elf/4.0.2/thumb/interwork/libgcc.a(_addsubdf3.o)
 .debug_line    0x0000117d      0x177 /home/GNUARM/bin/../lib/gcc/arm-elf/4.0.2/thumb/interwork/libgcc.a(_muldivdf3.o)
 .debug_line    0x000012f4       0xa4 /home/GNUARM/bin/../lib/gcc/arm-elf/4.0.2/thumb/interwork/libgcc.a(_cmpdf2.o)
 .debug_line    0x00001398       0x6f /home/GNUARM/bin/../lib/gcc/arm-elf/4.0.2/thumb/interwork/libgcc.a(_fixdfsi.o)
 .debug_line    0x00001407       0x80 /home/GNUARM/bin/../lib/gcc/arm-elf/4.0.2/thumb/interwork/libgcc.a(_truncdfsf2.o)
 .debug_line    0x00001487      0x110 /home/GNUARM/bin/../lib/gcc/arm-elf/4.0.2/thumb/interwork/libgcc.a(_addsubsf3.o)
 .debug_line    0x00001597      0x11a /home/GNUARM/bin/../lib/gcc/arm-elf/4.0.2/thumb/interwork/libgcc.a(_muldivsf3.o)
 .debug_line    0x000016b1       0x98 /home/GNUARM/bin/../lib/gcc/arm-elf/4.0.2/thumb/interwork/libgcc.a(_cmpsf2.o)
 .debug_line    0x00001749       0x6f /home/GNUARM/bin/../lib/gcc/arm-elf/4.0.2/thumb/interwork/libgcc.a(_fixsfsi.o)
 .debug_line    0x000017b8       0x61 /home/GNUARM/bin/../lib/gcc/arm-elf/4.0.2/thumb/interwork/libgcc.a(_muldi3.o)
 .debug_line    0x00001819      0x122 /home/GNUARM/bin/../lib/gcc/arm-elf/4.0.2/thumb/interwork/libgcc.a(_divdi3.o)
 .debug_line    0x0000193b       0x48 /home/GNUARM/bin/../lib/gcc/arm-elf/4.0.2/thumb/interwork/libgcc.a(_clz.o)
 .debug_line    0x00001983       0xf2 /home/GNUARM/bin/../lib/gcc/arm-elf/4.0.2/../../../../arm-elf/lib/thumb/interwork/libc.a(errno.o)
 .debug_line    0x00001a75       0xe3 /home/GNUARM/bin/../lib/gcc/arm-elf/4.0.2/../../../../arm-elf/lib/thumb/interwork/libc.a(impure.o)
 .debug_line    0x00001b58       0xfd /home/GNUARM/bin/../lib/gcc/arm-elf/4.0.2/../../../../arm-elf/lib/thumb/interwork/libc.a(malloc.o)
 .debug_line    0x00001c55      0x23d /home/GNUARM/bin/../lib/gcc/arm-elf/4.0.2/../../../../arm-elf/lib/thumb/interwork/libc.a(mallocr.o)
 .debug_line    0x00001e92       0xc3 /home/GNUARM/bin/../lib/gcc/arm-elf/4.0.2/../../../../arm-elf/lib/thumb/interwork/libc.a(memcpy.o)
 .debug_line    0x00001f55       0xd4 /home/GNUARM/bin/../lib/gcc/arm-elf/4.0.2/../../../../arm-elf/lib/thumb/interwork/libc.a(memset.o)
 .debug_line    0x00002029       0xf5 /home/GNUARM/bin/../lib/gcc/arm-elf/4.0.2/../../../../arm-elf/lib/thumb/interwork/libc.a(mlock.o)
 .debug_line    0x0000211e       0x88 /home/GNUARM/bin/../lib/gcc/arm-elf/4.0.2/../../../../arm-elf/lib/thumb/interwork/libc.a(strcmp.o)
 .debug_line    0x000021a6       0x80 /home/GNUARM/bin/../lib/gcc/arm-elf/4.0.2/../../../../arm-elf/lib/thumb/interwork/libc.a(strcpy.o)
 .debug_line    0x00002226       0xaf /home/GNUARM/bin/../lib/gcc/arm-elf/4.0.2/../../../../arm-elf/lib/thumb/interwork/libc.a(strlen.o)
 .debug_line    0x000022d5       0xc2 /home/GNUARM/bin/../lib/gcc/arm-elf/4.0.2/../../../../arm-elf/lib/thumb/interwork/libc.a(strncpy.o)
 .debug_line    0x00002397      0x164 /home/GNUARM/bin/../lib/gcc/arm-elf/4.0.2/../../../../arm-elf/lib/thumb/interwork/libc.a(freer.o)

.debug_frame    0x00000000      0x560
 .debug_frame   0x00000000       0x30 /home/GNUARM/bin/../lib/gcc/arm-elf/4.0.2/../../../../arm-elf/lib/thumb/interwork/libm.a(s_cos.o)
 .debug_frame   0x00000030       0x30 /home/GNUARM/bin/../lib/gcc/arm-elf/4.0.2/../../../../arm-elf/lib/thumb/interwork/libm.a(s_sin.o)
 .debug_frame   0x00000060       0x38 /home/GNUARM/bin/../lib/gcc/arm-elf/4.0.2/../../../../arm-elf/lib/thumb/interwork/libm.a(w_sqrt.o)
 .debug_frame   0x00000098       0x3c /home/GNUARM/bin/../lib/gcc/arm-elf/4.0.2/../../../../arm-elf/lib/thumb/interwork/libm.a(e_rem_pio2.o)
 .debug_frame   0x000000d4       0x3c /home/GNUARM/bin/../lib/gcc/arm-elf/4.0.2/../../../../arm-elf/lib/thumb/interwork/libm.a(e_sqrt.o)
 .debug_frame   0x00000110       0x38 /home/GNUARM/bin/../lib/gcc/arm-elf/4.0.2/../../../../arm-elf/lib/thumb/interwork/libm.a(k_cos.o)
 .debug_frame   0x00000148       0x3c /home/GNUARM/bin/../lib/gcc/arm-elf/4.0.2/../../../../arm-elf/lib/thumb/interwork/libm.a(k_rem_pio2.o)
 .debug_frame   0x00000184       0x30 /home/GNUARM/bin/../lib/gcc/arm-elf/4.0.2/../../../../arm-elf/lib/thumb/interwork/libm.a(k_sin.o)
 .debug_frame   0x000001b4       0x2c /home/GNUARM/bin/../lib/gcc/arm-elf/4.0.2/../../../../arm-elf/lib/thumb/interwork/libm.a(s_fabs.o)
 .debug_frame   0x000001e0       0x3c /home/GNUARM/bin/../lib/gcc/arm-elf/4.0.2/../../../../arm-elf/lib/thumb/interwork/libm.a(s_floor.o)
 .debug_frame   0x0000021c       0x20 /home/GNUARM/bin/../lib/gcc/arm-elf/4.0.2/../../../../arm-elf/lib/thumb/interwork/libm.a(s_isnan.o)
 .debug_frame   0x0000023c       0x20 /home/GNUARM/bin/../lib/gcc/arm-elf/4.0.2/../../../../arm-elf/lib/thumb/interwork/libm.a(s_matherr.o)
 .debug_frame   0x0000025c       0x34 /home/GNUARM/bin/../lib/gcc/arm-elf/4.0.2/../../../../arm-elf/lib/thumb/interwork/libm.a(s_scalbn.o)
 .debug_frame   0x00000290       0x30 /home/GNUARM/bin/../lib/gcc/arm-elf/4.0.2/../../../../arm-elf/lib/thumb/interwork/libm.a(s_copysign.o)
 .debug_frame   0x000002c0       0x38 /home/GNUARM/bin/../lib/gcc/arm-elf/4.0.2/thumb/interwork/libgcc.a(_muldi3.o)
 .debug_frame   0x000002f8       0x3c /home/GNUARM/bin/../lib/gcc/arm-elf/4.0.2/thumb/interwork/libgcc.a(_divdi3.o)
 .debug_frame   0x00000334       0x20 /home/GNUARM/bin/../lib/gcc/arm-elf/4.0.2/../../../../arm-elf/lib/thumb/interwork/libc.a(errno.o)
 .debug_frame   0x00000354       0x40 /home/GNUARM/bin/../lib/gcc/arm-elf/4.0.2/../../../../arm-elf/lib/thumb/interwork/libc.a(malloc.o)
 .debug_frame   0x00000394       0x3c /home/GNUARM/bin/../lib/gcc/arm-elf/4.0.2/../../../../arm-elf/lib/thumb/interwork/libc.a(mallocr.o)
 .debug_frame   0x000003d0       0x2c /home/GNUARM/bin/../lib/gcc/arm-elf/4.0.2/../../../../arm-elf/lib/thumb/interwork/libc.a(memcpy.o)
 .debug_frame   0x000003fc       0x2c /home/GNUARM/bin/../lib/gcc/arm-elf/4.0.2/../../../../arm-elf/lib/thumb/interwork/libc.a(memset.o)
 .debug_frame   0x00000428       0x30 /home/GNUARM/bin/../lib/gcc/arm-elf/4.0.2/../../../../arm-elf/lib/thumb/interwork/libc.a(mlock.o)
 .debug_frame   0x00000458       0x2c /home/GNUARM/bin/../lib/gcc/arm-elf/4.0.2/../../../../arm-elf/lib/thumb/interwork/libc.a(strcmp.o)
 .debug_frame   0x00000484       0x2c /home/GNUARM/bin/../lib/gcc/arm-elf/4.0.2/../../../../arm-elf/lib/thumb/interwork/libc.a(strcpy.o)
 .debug_frame   0x000004b0       0x2c /home/GNUARM/bin/../lib/gcc/arm-elf/4.0.2/../../../../arm-elf/lib/thumb/interwork/libc.a(strlen.o)
 .debug_frame   0x000004dc       0x30 /home/GNUARM/bin/../lib/gcc/arm-elf/4.0.2/../../../../arm-elf/lib/thumb/interwork/libc.a(strncpy.o)
 .debug_frame   0x0000050c       0x54 /home/GNUARM/bin/../lib/gcc/arm-elf/4.0.2/../../../../arm-elf/lib/thumb/interwork/libc.a(freer.o)

.debug_loc      0x00000000     0x3c5b
 .debug_loc     0x00000000       0xdd /home/GNUARM/bin/../lib/gcc/arm-elf/4.0.2/../../../../arm-elf/lib/thumb/interwork/libm.a(s_cos.o)
 .debug_loc     0x000000dd       0xbc /home/GNUARM/bin/../lib/gcc/arm-elf/4.0.2/../../../../arm-elf/lib/thumb/interwork/libm.a(s_sin.o)
 .debug_loc     0x00000199       0xa8 /home/GNUARM/bin/../lib/gcc/arm-elf/4.0.2/../../../../arm-elf/lib/thumb/interwork/libm.a(w_sqrt.o)
 .debug_loc     0x00000241      0x3da /home/GNUARM/bin/../lib/gcc/arm-elf/4.0.2/../../../../arm-elf/lib/thumb/interwork/libm.a(e_rem_pio2.o)
 .debug_loc     0x0000061b      0x481 /home/GNUARM/bin/../lib/gcc/arm-elf/4.0.2/../../../../arm-elf/lib/thumb/interwork/libm.a(e_sqrt.o)
 .debug_loc     0x00000a9c      0x13a /home/GNUARM/bin/../lib/gcc/arm-elf/4.0.2/../../../../arm-elf/lib/thumb/interwork/libm.a(k_cos.o)
 .debug_loc     0x00000bd6      0x843 /home/GNUARM/bin/../lib/gcc/arm-elf/4.0.2/../../../../arm-elf/lib/thumb/interwork/libm.a(k_rem_pio2.o)
 .debug_loc     0x00001419      0x10a /home/GNUARM/bin/../lib/gcc/arm-elf/4.0.2/../../../../arm-elf/lib/thumb/interwork/libm.a(k_sin.o)
 .debug_loc     0x00001523       0x18 /home/GNUARM/bin/../lib/gcc/arm-elf/4.0.2/../../../../arm-elf/lib/thumb/interwork/libm.a(s_fabs.o)
 .debug_loc     0x0000153b      0x283 /home/GNUARM/bin/../lib/gcc/arm-elf/4.0.2/../../../../arm-elf/lib/thumb/interwork/libm.a(s_floor.o)
 .debug_loc     0x000017be       0x18 /home/GNUARM/bin/../lib/gcc/arm-elf/4.0.2/../../../../arm-elf/lib/thumb/interwork/libm.a(s_isnan.o)
 .debug_loc     0x000017d6       0x13 /home/GNUARM/bin/../lib/gcc/arm-elf/4.0.2/../../../../arm-elf/lib/thumb/interwork/libm.a(s_matherr.o)
 .debug_loc     0x000017e9      0x166 /home/GNUARM/bin/../lib/gcc/arm-elf/4.0.2/../../../../arm-elf/lib/thumb/interwork/libm.a(s_scalbn.o)
 .debug_loc     0x0000194f       0x48 /home/GNUARM/bin/../lib/gcc/arm-elf/4.0.2/../../../../arm-elf/lib/thumb/interwork/libm.a(s_copysign.o)
 .debug_loc     0x00001997      0x156 /home/GNUARM/bin/../lib/gcc/arm-elf/4.0.2/thumb/interwork/libgcc.a(_muldi3.o)
 .debug_loc     0x00001aed      0xd45 /home/GNUARM/bin/../lib/gcc/arm-elf/4.0.2/thumb/interwork/libgcc.a(_divdi3.o)
 .debug_loc     0x00002832       0x3c /home/GNUARM/bin/../lib/gcc/arm-elf/4.0.2/../../../../arm-elf/lib/thumb/interwork/libc.a(malloc.o)
 .debug_loc     0x0000286e      0xaf9 /home/GNUARM/bin/../lib/gcc/arm-elf/4.0.2/../../../../arm-elf/lib/thumb/interwork/libc.a(mallocr.o)
 .debug_loc     0x00003367      0x127 /home/GNUARM/bin/../lib/gcc/arm-elf/4.0.2/../../../../arm-elf/lib/thumb/interwork/libc.a(memcpy.o)
 .debug_loc     0x0000348e      0x12a /home/GNUARM/bin/../lib/gcc/arm-elf/4.0.2/../../../../arm-elf/lib/thumb/interwork/libc.a(memset.o)
 .debug_loc     0x000035b8       0x8e /home/GNUARM/bin/../lib/gcc/arm-elf/4.0.2/../../../../arm-elf/lib/thumb/interwork/libc.a(strcmp.o)
 .debug_loc     0x00003646       0xb4 /home/GNUARM/bin/../lib/gcc/arm-elf/4.0.2/../../../../arm-elf/lib/thumb/interwork/libc.a(strcpy.o)
 .debug_loc     0x000036fa       0x3c /home/GNUARM/bin/../lib/gcc/arm-elf/4.0.2/../../../../arm-elf/lib/thumb/interwork/libc.a(strlen.o)
 .debug_loc     0x00003736      0x156 /home/GNUARM/bin/../lib/gcc/arm-elf/4.0.2/../../../../arm-elf/lib/thumb/interwork/libc.a(strncpy.o)
 .debug_loc     0x0000388c      0x3cf /home/GNUARM/bin/../lib/gcc/arm-elf/4.0.2/../../../../arm-elf/lib/thumb/interwork/libc.a(freer.o)

.debug_pubnames
                0x00000000      0x49f
 .debug_pubnames
                0x00000000       0x1a /home/GNUARM/bin/../lib/gcc/arm-elf/4.0.2/../../../../arm-elf/lib/thumb/interwork/libm.a(s_cos.o)
 .debug_pubnames
                0x0000001a       0x1a /home/GNUARM/bin/../lib/gcc/arm-elf/4.0.2/../../../../arm-elf/lib/thumb/interwork/libm.a(s_sin.o)
 .debug_pubnames
                0x00000034       0x1b /home/GNUARM/bin/../lib/gcc/arm-elf/4.0.2/../../../../arm-elf/lib/thumb/interwork/libm.a(w_sqrt.o)
 .debug_pubnames
                0x0000004f       0x29 /home/GNUARM/bin/../lib/gcc/arm-elf/4.0.2/../../../../arm-elf/lib/thumb/interwork/libm.a(e_rem_pio2.o)
 .debug_pubnames
                0x00000078       0x25 /home/GNUARM/bin/../lib/gcc/arm-elf/4.0.2/../../../../arm-elf/lib/thumb/interwork/libm.a(e_sqrt.o)
 .debug_pubnames
                0x0000009d       0x23 /home/GNUARM/bin/../lib/gcc/arm-elf/4.0.2/../../../../arm-elf/lib/thumb/interwork/libm.a(k_cos.o)
 .debug_pubnames
                0x000000c0       0x28 /home/GNUARM/bin/../lib/gcc/arm-elf/4.0.2/../../../../arm-elf/lib/thumb/interwork/libm.a(k_rem_pio2.o)
 .debug_pubnames
                0x000000e8       0x23 /home/GNUARM/bin/../lib/gcc/arm-elf/4.0.2/../../../../arm-elf/lib/thumb/interwork/libm.a(k_sin.o)
 .debug_pubnames
                0x0000010b       0x1b /home/GNUARM/bin/../lib/gcc/arm-elf/4.0.2/../../../../arm-elf/lib/thumb/interwork/libm.a(s_fabs.o)
 .debug_pubnames
                0x00000126       0x1c /home/GNUARM/bin/../lib/gcc/arm-elf/4.0.2/../../../../arm-elf/lib/thumb/interwork/libm.a(s_floor.o)
 .debug_pubnames
                0x00000142       0x1c /home/GNUARM/bin/../lib/gcc/arm-elf/4.0.2/../../../../arm-elf/lib/thumb/interwork/libm.a(s_isnan.o)
 .debug_pubnames
                0x0000015e       0x26 /home/GNUARM/bin/../lib/gcc/arm-elf/4.0.2/../../../../arm-elf/lib/thumb/interwork/libm.a(s_lib_ver.o)
 .debug_pubnames
                0x00000184       0x1e /home/GNUARM/bin/../lib/gcc/arm-elf/4.0.2/../../../../arm-elf/lib/thumb/interwork/libm.a(s_matherr.o)
 .debug_pubnames
                0x000001a2       0x1d /home/GNUARM/bin/../lib/gcc/arm-elf/4.0.2/../../../../arm-elf/lib/thumb/interwork/libm.a(s_scalbn.o)
 .debug_pubnames
                0x000001bf       0x1f /home/GNUARM/bin/../lib/gcc/arm-elf/4.0.2/../../../../arm-elf/lib/thumb/interwork/libm.a(s_copysign.o)
 .debug_pubnames
                0x000001de       0x1f /home/GNUARM/bin/../lib/gcc/arm-elf/4.0.2/thumb/interwork/libgcc.a(_muldi3.o)
 .debug_pubnames
                0x000001fd       0x1f /home/GNUARM/bin/../lib/gcc/arm-elf/4.0.2/thumb/interwork/libgcc.a(_divdi3.o)
 .debug_pubnames
                0x0000021c       0x20 /home/GNUARM/bin/../lib/gcc/arm-elf/4.0.2/thumb/interwork/libgcc.a(_clz.o)
 .debug_pubnames
                0x0000023c       0x1e /home/GNUARM/bin/../lib/gcc/arm-elf/4.0.2/../../../../arm-elf/lib/thumb/interwork/libc.a(errno.o)
 .debug_pubnames
                0x0000025a       0x39 /home/GNUARM/bin/../lib/gcc/arm-elf/4.0.2/../../../../arm-elf/lib/thumb/interwork/libc.a(impure.o)
 .debug_pubnames
                0x00000293       0x26 /home/GNUARM/bin/../lib/gcc/arm-elf/4.0.2/../../../../arm-elf/lib/thumb/interwork/libc.a(malloc.o)
 .debug_pubnames
                0x000002b9       0xce /home/GNUARM/bin/../lib/gcc/arm-elf/4.0.2/../../../../arm-elf/lib/thumb/interwork/libc.a(mallocr.o)
 .debug_pubnames
                0x00000387       0x1d /home/GNUARM/bin/../lib/gcc/arm-elf/4.0.2/../../../../arm-elf/lib/thumb/interwork/libc.a(memcpy.o)
 .debug_pubnames
                0x000003a4       0x1d /home/GNUARM/bin/../lib/gcc/arm-elf/4.0.2/../../../../arm-elf/lib/thumb/interwork/libc.a(memset.o)
 .debug_pubnames
                0x000003c1       0x38 /home/GNUARM/bin/../lib/gcc/arm-elf/4.0.2/../../../../arm-elf/lib/thumb/interwork/libc.a(mlock.o)
 .debug_pubnames
                0x000003f9       0x1d /home/GNUARM/bin/../lib/gcc/arm-elf/4.0.2/../../../../arm-elf/lib/thumb/interwork/libc.a(strcmp.o)
 .debug_pubnames
                0x00000416       0x1d /home/GNUARM/bin/../lib/gcc/arm-elf/4.0.2/../../../../arm-elf/lib/thumb/interwork/libc.a(strcpy.o)
 .debug_pubnames
                0x00000433       0x1d /home/GNUARM/bin/../lib/gcc/arm-elf/4.0.2/../../../../arm-elf/lib/thumb/interwork/libc.a(strlen.o)
 .debug_pubnames
                0x00000450       0x1e /home/GNUARM/bin/../lib/gcc/arm-elf/4.0.2/../../../../arm-elf/lib/thumb/interwork/libc.a(strncpy.o)
 .debug_pubnames
                0x0000046e       0x31 /home/GNUARM/bin/../lib/gcc/arm-elf/4.0.2/../../../../arm-elf/lib/thumb/interwork/libc.a(freer.o)

.debug_aranges  0x00000000      0x520
 .debug_aranges
                0x00000000       0x20 /home/GNUARM/bin/../lib/gcc/arm-elf/4.0.2/../../../../arm-elf/lib/thumb/interwork/libm.a(s_cos.o)
 .debug_aranges
                0x00000020       0x20 /home/GNUARM/bin/../lib/gcc/arm-elf/4.0.2/../../../../arm-elf/lib/thumb/interwork/libm.a(s_sin.o)
 .debug_aranges
                0x00000040       0x20 /home/GNUARM/bin/../lib/gcc/arm-elf/4.0.2/../../../../arm-elf/lib/thumb/interwork/libm.a(w_sqrt.o)
 .debug_aranges
                0x00000060       0x20 /home/GNUARM/bin/../lib/gcc/arm-elf/4.0.2/../../../../arm-elf/lib/thumb/interwork/libm.a(e_rem_pio2.o)
 .debug_aranges
                0x00000080       0x20 /home/GNUARM/bin/../lib/gcc/arm-elf/4.0.2/../../../../arm-elf/lib/thumb/interwork/libm.a(e_sqrt.o)
 .debug_aranges
                0x000000a0       0x20 /home/GNUARM/bin/../lib/gcc/arm-elf/4.0.2/../../../../arm-elf/lib/thumb/interwork/libm.a(k_cos.o)
 .debug_aranges
                0x000000c0       0x20 /home/GNUARM/bin/../lib/gcc/arm-elf/4.0.2/../../../../arm-elf/lib/thumb/interwork/libm.a(k_rem_pio2.o)
 .debug_aranges
                0x000000e0       0x20 /home/GNUARM/bin/../lib/gcc/arm-elf/4.0.2/../../../../arm-elf/lib/thumb/interwork/libm.a(k_sin.o)
 .debug_aranges
                0x00000100       0x20 /home/GNUARM/bin/../lib/gcc/arm-elf/4.0.2/../../../../arm-elf/lib/thumb/interwork/libm.a(s_fabs.o)
 .debug_aranges
                0x00000120       0x20 /home/GNUARM/bin/../lib/gcc/arm-elf/4.0.2/../../../../arm-elf/lib/thumb/interwork/libm.a(s_floor.o)
 .debug_aranges
                0x00000140       0x20 /home/GNUARM/bin/../lib/gcc/arm-elf/4.0.2/../../../../arm-elf/lib/thumb/interwork/libm.a(s_isnan.o)
 .debug_aranges
                0x00000160       0x20 /home/GNUARM/bin/../lib/gcc/arm-elf/4.0.2/../../../../arm-elf/lib/thumb/interwork/libm.a(s_matherr.o)
 .debug_aranges
                0x00000180       0x20 /home/GNUARM/bin/../lib/gcc/arm-elf/4.0.2/../../../../arm-elf/lib/thumb/interwork/libm.a(s_scalbn.o)
 .debug_aranges
                0x000001a0       0x20 /home/GNUARM/bin/../lib/gcc/arm-elf/4.0.2/../../../../arm-elf/lib/thumb/interwork/libm.a(s_copysign.o)
 .debug_aranges
                0x000001c0       0x20 /home/GNUARM/bin/../lib/gcc/arm-elf/4.0.2/thumb/interwork/libgcc.a(_udivsi3.o)
 .debug_aranges
                0x000001e0       0x20 /home/GNUARM/bin/../lib/gcc/arm-elf/4.0.2/thumb/interwork/libgcc.a(_divsi3.o)
 .debug_aranges
                0x00000200       0x20 /home/GNUARM/bin/../lib/gcc/arm-elf/4.0.2/thumb/interwork/libgcc.a(_umodsi3.o)
 .debug_aranges
                0x00000220       0x20 /home/GNUARM/bin/../lib/gcc/arm-elf/4.0.2/thumb/interwork/libgcc.a(_modsi3.o)
 .debug_aranges
                0x00000240       0x20 /home/GNUARM/bin/../lib/gcc/arm-elf/4.0.2/thumb/interwork/libgcc.a(_dvmd_tls.o)
 .debug_aranges
                0x00000260       0x20 /home/GNUARM/bin/../lib/gcc/arm-elf/4.0.2/thumb/interwork/libgcc.a(_addsubdf3.o)
 .debug_aranges
                0x00000280       0x20 /home/GNUARM/bin/../lib/gcc/arm-elf/4.0.2/thumb/interwork/libgcc.a(_muldivdf3.o)
 .debug_aranges
                0x000002a0       0x20 /home/GNUARM/bin/../lib/gcc/arm-elf/4.0.2/thumb/interwork/libgcc.a(_cmpdf2.o)
 .debug_aranges
                0x000002c0       0x20 /home/GNUARM/bin/../lib/gcc/arm-elf/4.0.2/thumb/interwork/libgcc.a(_fixdfsi.o)
 .debug_aranges
                0x000002e0       0x20 /home/GNUARM/bin/../lib/gcc/arm-elf/4.0.2/thumb/interwork/libgcc.a(_truncdfsf2.o)
 .debug_aranges
                0x00000300       0x20 /home/GNUARM/bin/../lib/gcc/arm-elf/4.0.2/thumb/interwork/libgcc.a(_addsubsf3.o)
 .debug_aranges
                0x00000320       0x20 /home/GNUARM/bin/../lib/gcc/arm-elf/4.0.2/thumb/interwork/libgcc.a(_muldivsf3.o)
 .debug_aranges
                0x00000340       0x20 /home/GNUARM/bin/../lib/gcc/arm-elf/4.0.2/thumb/interwork/libgcc.a(_cmpsf2.o)
 .debug_aranges
                0x00000360       0x20 /home/GNUARM/bin/../lib/gcc/arm-elf/4.0.2/thumb/interwork/libgcc.a(_fixsfsi.o)
 .debug_aranges
                0x00000380       0x20 /home/GNUARM/bin/../lib/gcc/arm-elf/4.0.2/thumb/interwork/libgcc.a(_muldi3.o)
 .debug_aranges
                0x000003a0       0x20 /home/GNUARM/bin/../lib/gcc/arm-elf/4.0.2/thumb/interwork/libgcc.a(_divdi3.o)
 .debug_aranges
                0x000003c0       0x20 /home/GNUARM/bin/../lib/gcc/arm-elf/4.0.2/../../../../arm-elf/lib/thumb/interwork/libc.a(errno.o)
 .debug_aranges
                0x000003e0       0x20 /home/GNUARM/bin/../lib/gcc/arm-elf/4.0.2/../../../../arm-elf/lib/thumb/interwork/libc.a(malloc.o)
 .debug_aranges
                0x00000400       0x20 /home/GNUARM/bin/../lib/gcc/arm-elf/4.0.2/../../../../arm-elf/lib/thumb/interwork/libc.a(mallocr.o)
 .debug_aranges
                0x00000420       0x20 /home/GNUARM/bin/../lib/gcc/arm-elf/4.0.2/../../../../arm-elf/lib/thumb/interwork/libc.a(memcpy.o)
 .debug_aranges
                0x00000440       0x20 /home/GNUARM/bin/../lib/gcc/arm-elf/4.0.2/../../../../arm-elf/lib/thumb/interwork/libc.a(memset.o)
 .debug_aranges
                0x00000460       0x20 /home/GNUARM/bin/../lib/gcc/arm-elf/4.0.2/../../../../arm-elf/lib/thumb/interwork/libc.a(mlock.o)
 .debug_aranges
                0x00000480       0x20 /home/GNUARM/bin/../lib/gcc/arm-elf/4.0.2/../../../../arm-elf/lib/thumb/interwork/libc.a(strcmp.o)
 .debug_aranges
                0x000004a0       0x20 /home/GNUARM/bin/../lib/gcc/arm-elf/4.0.2/../../../../arm-elf/lib/thumb/interwork/libc.a(strcpy.o)
 .debug_aranges
                0x000004c0       0x20 /home/GNUARM/bin/../lib/gcc/arm-elf/4.0.2/../../../../arm-elf/lib/thumb/interwork/libc.a(strlen.o)
 .debug_aranges
                0x000004e0       0x20 /home/GNUARM/bin/../lib/gcc/arm-elf/4.0.2/../../../../arm-elf/lib/thumb/interwork/libc.a(strncpy.o)
 .debug_aranges
                0x00000500       0x20 /home/GNUARM/bin/../lib/gcc/arm-elf/4.0.2/../../../../arm-elf/lib/thumb/interwork/libc.a(freer.o)

.debug_str      0x00000000     0x1168
 .debug_str     0x00000000       0xeb /home/GNUARM/bin/../lib/gcc/arm-elf/4.0.2/../../../../arm-elf/lib/thumb/interwork/libm.a(s_cos.o)
                                0x131 (size before relaxing)
 .debug_str     0x000000eb       0x3c /home/GNUARM/bin/../lib/gcc/arm-elf/4.0.2/../../../../arm-elf/lib/thumb/interwork/libm.a(s_sin.o)
                                0x131 (size before relaxing)
 .debug_str     0x00000127       0xb8 /home/GNUARM/bin/../lib/gcc/arm-elf/4.0.2/../../../../arm-elf/lib/thumb/interwork/libm.a(w_sqrt.o)
                                0x1ad (size before relaxing)
 .debug_str     0x000001df       0xe5 /home/GNUARM/bin/../lib/gcc/arm-elf/4.0.2/../../../../arm-elf/lib/thumb/interwork/libm.a(e_rem_pio2.o)
                                0x1e0 (size before relaxing)
 .debug_str     0x000002c4       0x5b /home/GNUARM/bin/../lib/gcc/arm-elf/4.0.2/../../../../arm-elf/lib/thumb/interwork/libm.a(e_sqrt.o)
                                0x183 (size before relaxing)
 .debug_str     0x0000031f       0x49 /home/GNUARM/bin/../lib/gcc/arm-elf/4.0.2/../../../../arm-elf/lib/thumb/interwork/libm.a(k_cos.o)
                                0x171 (size before relaxing)
 .debug_str     0x00000368       0x82 /home/GNUARM/bin/../lib/gcc/arm-elf/4.0.2/../../../../arm-elf/lib/thumb/interwork/libm.a(k_rem_pio2.o)
                                0x182 (size before relaxing)
 .debug_str     0x000003ea       0x49 /home/GNUARM/bin/../lib/gcc/arm-elf/4.0.2/../../../../arm-elf/lib/thumb/interwork/libm.a(k_sin.o)
                                0x143 (size before relaxing)
 .debug_str     0x00000433       0x42 /home/GNUARM/bin/../lib/gcc/arm-elf/4.0.2/../../../../arm-elf/lib/thumb/interwork/libm.a(s_fabs.o)
                                0x165 (size before relaxing)
 .debug_str     0x00000475       0x49 /home/GNUARM/bin/../lib/gcc/arm-elf/4.0.2/../../../../arm-elf/lib/thumb/interwork/libm.a(s_floor.o)
                                0x176 (size before relaxing)
 .debug_str     0x000004be       0x44 /home/GNUARM/bin/../lib/gcc/arm-elf/4.0.2/../../../../arm-elf/lib/thumb/interwork/libm.a(s_isnan.o)
                                0x139 (size before relaxing)
 .debug_str     0x00000502       0x81 /home/GNUARM/bin/../lib/gcc/arm-elf/4.0.2/../../../../arm-elf/lib/thumb/interwork/libm.a(s_lib_ver.o)
                                0x18a (size before relaxing)
 .debug_str     0x00000583       0x4a /home/GNUARM/bin/../lib/gcc/arm-elf/4.0.2/../../../../arm-elf/lib/thumb/interwork/libm.a(s_matherr.o)
                                0x15c (size before relaxing)
 .debug_str     0x000005cd       0x55 /home/GNUARM/bin/../lib/gcc/arm-elf/4.0.2/../../../../arm-elf/lib/thumb/interwork/libm.a(s_scalbn.o)
                                0x189 (size before relaxing)
 .debug_str     0x00000622       0x4c /home/GNUARM/bin/../lib/gcc/arm-elf/4.0.2/../../../../arm-elf/lib/thumb/interwork/libm.a(s_copysign.o)
                                0x171 (size before relaxing)
 .debug_str     0x0000066e       0x9a /home/GNUARM/bin/../lib/gcc/arm-elf/4.0.2/thumb/interwork/libgcc.a(_muldi3.o)
                                0x14f (size before relaxing)
 .debug_str     0x00000708       0x5d /home/GNUARM/bin/../lib/gcc/arm-elf/4.0.2/thumb/interwork/libgcc.a(_divdi3.o)
                                0x1a3 (size before relaxing)
 .debug_str     0x00000765        0x0 /home/GNUARM/bin/../lib/gcc/arm-elf/4.0.2/thumb/interwork/libgcc.a(_clz.o)
                                0x104 (size before relaxing)
 .debug_str     0x00000765      0x3f3 /home/GNUARM/bin/../lib/gcc/arm-elf/4.0.2/../../../../arm-elf/lib/thumb/interwork/libc.a(errno.o)
                                0x4ad (size before relaxing)
 .debug_str     0x00000b58       0x9b /home/GNUARM/bin/../lib/gcc/arm-elf/4.0.2/../../../../arm-elf/lib/thumb/interwork/libc.a(impure.o)
                                0x4c5 (size before relaxing)
 .debug_str     0x00000bf3       0x96 /home/GNUARM/bin/../lib/gcc/arm-elf/4.0.2/../../../../arm-elf/lib/thumb/interwork/libc.a(malloc.o)
                                0x4c7 (size before relaxing)
 .debug_str     0x00000c89      0x20c /home/GNUARM/bin/../lib/gcc/arm-elf/4.0.2/../../../../arm-elf/lib/thumb/interwork/libc.a(mallocr.o)
                                0x6a8 (size before relaxing)
 .debug_str     0x00000e95       0xac /home/GNUARM/bin/../lib/gcc/arm-elf/4.0.2/../../../../arm-elf/lib/thumb/interwork/libc.a(memcpy.o)
                                 0xdf (size before relaxing)
 .debug_str     0x00000f41       0x5a /home/GNUARM/bin/../lib/gcc/arm-elf/4.0.2/../../../../arm-elf/lib/thumb/interwork/libc.a(memset.o)
                                0x129 (size before relaxing)
 .debug_str     0x00000f9b       0x71 /home/GNUARM/bin/../lib/gcc/arm-elf/4.0.2/../../../../arm-elf/lib/thumb/interwork/libc.a(mlock.o)
                                0x4ce (size before relaxing)
 .debug_str     0x0000100c       0x46 /home/GNUARM/bin/../lib/gcc/arm-elf/4.0.2/../../../../arm-elf/lib/thumb/interwork/libc.a(strcmp.o)
                                0x10e (size before relaxing)
 .debug_str     0x00001052       0x46 /home/GNUARM/bin/../lib/gcc/arm-elf/4.0.2/../../../../arm-elf/lib/thumb/interwork/libc.a(strcpy.o)
                                0x130 (size before relaxing)
 .debug_str     0x00001098       0x4c /home/GNUARM/bin/../lib/gcc/arm-elf/4.0.2/../../../../arm-elf/lib/thumb/interwork/libc.a(strlen.o)
                                0x128 (size before relaxing)
 .debug_str     0x000010e4       0x48 /home/GNUARM/bin/../lib/gcc/arm-elf/4.0.2/../../../../arm-elf/lib/thumb/interwork/libc.a(strncpy.o)
                                0x13f (size before relaxing)
 .debug_str     0x0000112c       0x3c /home/GNUARM/bin/../lib/gcc/arm-elf/4.0.2/../../../../arm-elf/lib/thumb/interwork/libc.a(freer.o)
                                0x5fa (size before relaxing)

.debug_ranges   0x00000000      0x278
 .debug_ranges  0x00000000       0x38 /home/GNUARM/bin/../lib/gcc/arm-elf/4.0.2/../../../../arm-elf/lib/thumb/interwork/libm.a(e_rem_pio2.o)
 .debug_ranges  0x00000038       0x18 /home/GNUARM/bin/../lib/gcc/arm-elf/4.0.2/../../../../arm-elf/lib/thumb/interwork/libm.a(s_scalbn.o)
 .debug_ranges  0x00000050       0x18 /home/GNUARM/bin/../lib/gcc/arm-elf/4.0.2/../../../../arm-elf/lib/thumb/interwork/libm.a(s_copysign.o)
 .debug_ranges  0x00000068       0x30 /home/GNUARM/bin/../lib/gcc/arm-elf/4.0.2/thumb/interwork/libgcc.a(_muldi3.o)
 .debug_ranges  0x00000098      0x1a8 /home/GNUARM/bin/../lib/gcc/arm-elf/4.0.2/thumb/interwork/libgcc.a(_divdi3.o)
 .debug_ranges  0x00000240       0x38 /home/GNUARM/bin/../lib/gcc/arm-elf/4.0.2/../../../../arm-elf/lib/thumb/interwork/libc.a(mallocr.o)

Cross Reference Table

Symbol                                            File
AKB48                                             build/TechBezierTrace.o
                                                  build/Technic.o
                                                  build/Driver.o
A_D                                               build/balancer_param.o
                                                  /home/nxtOSEK/ecrobot/../ecrobot/libnxtway_gs_balancer.a(balancer.o)
A_R                                               build/balancer_param.o
                                                  /home/nxtOSEK/ecrobot/../ecrobot/libnxtway_gs_balancer.a(balancer.o)
ActivateTask                                      build/kernel/task_manage.o
Alarm4msec                                        build/./kernel_cfg.o
                                                  build/Driver.o
AssertDeviceConstructor                           build/rtoscalls.o
                                                  /home/nxtOSEK/ecrobot/../ecrobot/libecrobot++.a(TouchSensor.o)
                                                  /home/nxtOSEK/ecrobot/../ecrobot/libecrobot++.a(Motor.o)
                                                  /home/nxtOSEK/ecrobot/../ecrobot/libecrobot++.a(LightSensor.o)
                                                  /home/nxtOSEK/ecrobot/../ecrobot/libecrobot++.a(I2c.o)
                                                  /home/nxtOSEK/ecrobot/../ecrobot/libecrobot++.a(GyroSensor.o)
                                                  /home/nxtOSEK/ecrobot/../ecrobot/libecrobot++.a(Bluetooth.o)
BATTERY_GAIN                                      build/balancer_param.o
                                                  /home/nxtOSEK/ecrobot/../ecrobot/libnxtway_gs_balancer.a(balancer.o)
BATTERY_OFFSET                                    build/balancer_param.o
                                                  /home/nxtOSEK/ecrobot/../ecrobot/libnxtway_gs_balancer.a(balancer.o)
CancelAlarm                                       build/kernel/alarm.o
                                                  build/Driver.o
ChainTask                                         build/kernel/task_manage.o
ClearEvent                                        build/kernel/event.o
                                                  build/Driver.o
                                                  build/rtoscalls.o
ControlMission_Posture::Init(RobotInfo, NavInfo)  build/Driver.o
ControlMission_Posture::Run(RobotInfo, NavInfo, EventFlag, RobotCmd&) build/Driver.o
ControlMission_Posture::~ControlMission_Posture() build/Driver.o
ControlMission_Posture::~ControlMission_Posture() build/Driver.o
ControlMission_Speed::Init(RobotInfo, NavInfo)    build/Driver.o
ControlMission_Speed::Run(RobotInfo, NavInfo, EventFlag, RobotCmd&) build/Driver.o
ControlMission_Speed::~ControlMission_Speed()     build/Driver.o
ControlMission_Speed::~ControlMission_Speed()     build/Driver.o
ControlMission_SpeedPID::Init(RobotInfo, NavInfo) build/Driver.o
ControlMission_SpeedPID::Run(RobotInfo, NavInfo, EventFlag, RobotCmd&) build/Driver.o
ControlMission_SpeedPID::~ControlMission_SpeedPID() build/Driver.o
ControlMission_SpeedPID::~ControlMission_SpeedPID() build/Driver.o
ControlMission_Transition::Init(RobotInfo, NavInfo) build/Driver.o
ControlMission_Transition::Run(RobotInfo, NavInfo, EventFlag, RobotCmd&) build/Driver.o
ControlMission_Transition::~ControlMission_Transition() build/Driver.o
ControlMission_Transition::~ControlMission_Transition() build/Driver.o
CourseInfo::PetBottle1                            build/CourseInfo.o
CourseInfo::PetBottle2                            build/CourseInfo.o
CourseInfo::colorBlack                            build/CourseInfo.o
                                                  build/Technic.o
                                                  build/Driver.o
                                                  build/Navigator.o
                                                  build/Robot.o
CourseInfo::colorGray                             build/CourseInfo.o
CourseInfo::colorWhite                            build/CourseInfo.o
                                                  build/Technic.o
                                                  build/Driver.o
                                                  build/Navigator.o
                                                  build/Robot.o
CourseInfo::getStartPos(double&, double&, double&) build/CourseInfo.o
                                                  build/Navigator.o
CourseInfo::ratio                                 build/CourseInfo.o
CourseInfo::startPosAngIn                         build/CourseInfo.o
CourseInfo::startPosAngOut                        build/CourseInfo.o
CourseInfo::startPosXIn                           build/CourseInfo.o
CourseInfo::startPosXOut                          build/CourseInfo.o
CourseInfo::startPosYIn                           build/CourseInfo.o
CourseInfo::startPosYOut                          build/CourseInfo.o
CourseInfo::type                                  build/CourseInfo.o
                                                  build/Driver.o
CsikosPost                                        build/TechBezierTrace.o
                                                  build/Technic.o
                                                  build/Driver.o
DetectionMission_Sonar::Run(RobotInfo, NavInfo, EventFlag, RobotCmd&) build/Driver.o
DetectionMission_Sonar::~DetectionMission_Sonar() build/Driver.o
DetectionMission_Sonar::~DetectionMission_Sonar() build/Driver.o
DetectionMission_Time::Init(RobotInfo, NavInfo)   build/Driver.o
DetectionMission_Time::Run(RobotInfo, NavInfo, EventFlag, RobotCmd&) build/Driver.o
DetectionMission_Time::~DetectionMission_Time()   build/Driver.o
DetectionMission_Time::~DetectionMission_Time()   build/Driver.o
DisableAllInterrupts                              build/kernel/interrupt.o
Driver::AddMission(Mission**, unsigned int)       build/Driver.o
Driver::ClearEventFlag()                          build/Driver.o
Driver::ClearMission()                            build/Driver.o
Driver::Driver()                                  build/Driver.o
Driver::Driver()                                  build/Driver.o
Driver::Instance()                                build/Driver.o
Driver::Notify(Robot::RobotEvent)                 build/Driver.o
Driver::Process()                                 build/Driver.o
Driver::SetEventFlag(Robot::RobotEvent)           build/Driver.o
Driver::is_SetEventFlag(Robot::RobotEvent)        build/Driver.o
Driver::state_bt_connect()                        build/Driver.o
Driver::state_calibration()                       build/Driver.o
Driver::state_driving()                           build/Driver.o
Driver::state_self_introduction()                 build/Driver.o
Driver::state_wait_start()                        build/Driver.o
Driver::theInstance_                              build/Driver.o
Driver::~Driver()                                 build/Driver.o
Driver::~Driver()                                 build/Driver.o
Driver::~Driver()                                 build/Driver.o
EnableAllInterrupts                               build/kernel/interrupt.o
ErrorHook                                         /home/nxtOSEK/ecrobot/../ecrobot/libecrobot.a(osek_hook.o)
                                                  build/kernel/osctl.o
EventDrive                                        build/./kernel_cfg.o
                                                  build/Driver.o
EventSleep                                        build/./kernel_cfg.o
                                                  build/rtoscalls.o
EventSleepI2C                                     build/./kernel_cfg.o
                                                  build/rtoscalls.o
GetActiveApplicationMode                          build/kernel/osctl.o
GetAlarm                                          build/kernel/alarm.o
GetAlarmBase                                      build/kernel/alarm.o
GetEvent                                          build/kernel/event.o
GetResource                                       build/kernel/resource.o
GetTaskID                                         build/kernel/task_manage.o
                                                  build/rtoscalls.o
GetTaskState                                      build/kernel/task_manage.o
K_F                                               build/balancer_param.o
                                                  /home/nxtOSEK/ecrobot/../ecrobot/libnxtway_gs_balancer.a(balancer.o)
K_I                                               build/balancer_param.o
                                                  /home/nxtOSEK/ecrobot/../ecrobot/libnxtway_gs_balancer.a(balancer.o)
K_PHIDOT                                          build/balancer_param.o
                                                  /home/nxtOSEK/ecrobot/../ecrobot/libnxtway_gs_balancer.a(balancer.o)
K_THETADOT                                        build/balancer_param.o
                                                  /home/nxtOSEK/ecrobot/../ecrobot/libnxtway_gs_balancer.a(balancer.o)
MarioTimeUp                                       build/TechBezierTrace.o
                                                  build/Technic.o
                                                  build/Driver.o
MarkerCheck::IsMarker(short)                      build/MarkerCheck.o
                                                  build/Robot.o
MarkerCheck::is_straight()                        build/MarkerCheck.o
Mission::Init(RobotInfo, NavInfo)                 build/Mission.o
                                                  build/Driver.o
Mission::Mission()                                build/Mission.o
                                                  build/Driver.o
Mission::Mission()                                build/Mission.o
Mission::Name()                                   build/Mission.o
                                                  build/Driver.o
Mission::Run(RobotInfo, NavInfo, EventFlag, RobotCmd&) build/Mission.o
Mission::~Mission()                               build/Mission.o
Mission::~Mission()                               build/Mission.o
                                                  build/Driver.o
Mission::~Mission()                               build/Mission.o
Mission_TailStraight::Init(RobotInfo, NavInfo)    build/Driver.o
Mission_TailStraight::Run(RobotInfo, NavInfo, EventFlag, RobotCmd&) build/Driver.o
Mission_TailStraight::~Mission_TailStraight()     build/Driver.o
Mission_TailStraight::~Mission_TailStraight()     build/Driver.o
NXT_COLORSENSOR_PROTOCOLS                         /home/nxtOSEK/ecrobot/../ecrobot/libecrobot.a(ecrobot_interface.o)
NXT_Entry_Point                                   build/nxt_entry_point.o
                                                  build/nxt_binary_header.o
Navigator::CalcDirCorrection()                    build/Navigator.o
Navigator::GetInfo(RobotInfo const&)              build/Navigator.o
                                                  build/Driver.o
Navigator::GetNowPos()                            build/Navigator.o
                                                  build/MarkerCheck.o
Navigator::Init()                                 build/Navigator.o
                                                  build/Driver.o
Navigator::Instance()                             build/Navigator.o
                                                  build/MarkerCheck.o
                                                  build/Driver.o
Navigator::Navigator()                            build/Navigator.o
Navigator::Navigator()                            build/Navigator.o
Navigator::ResetEncoder()                         build/Navigator.o
Navigator::SetInfo(float, float, float)           build/Navigator.o
Navigator::StartDirCorrection(float, float)       build/Navigator.o
Navigator::theInstance_                           build/Navigator.o
Navigator::~Navigator()                           build/Navigator.o
Navigator::~Navigator()                           build/Navigator.o
PostTaskHook                                      /home/nxtOSEK/ecrobot/../ecrobot/libecrobot.a(osek_hook.o)
                                                  build/config/at91sam7s-gnu/cpu_support.oram
                                                  build/kernel/osctl.o
PreTaskHook                                       /home/nxtOSEK/ecrobot/../ecrobot/libecrobot.a(osek_hook.o)
                                                  build/config/at91sam7s-gnu/cpu_support.oram
                                                  build/kernel/osctl.o
ReleaseResource                                   build/kernel/resource.o
Resource_DEList                                   build/./kernel_cfg.o
ResumeAllInterrupts                               build/kernel/interrupt.o
ResumeOSInterrupts                                build/kernel/interrupt.o
Robot::AddObserver(RobotObserver**, unsigned int) build/Robot.o
                                                  build/Driver.o
Robot::BTConnect()                                build/Robot.o
                                                  build/Driver.o
Robot::BTSend(RobotCmd, RobotInfo, NavInfo)       build/Robot.o
Robot::Calibration()                              build/Robot.o
                                                  build/Driver.o
Robot::CallNotify(Robot::RobotEvent)              build/Robot.o
Robot::CheckGyroSensor()                          build/Robot.o
Robot::CheckLightSensor()                         build/Robot.o
Robot::CheckRemoteStart()                         build/Robot.o
Robot::CheckSonarSensor()                         build/Robot.o
Robot::CheckTouchSensor()                         build/Robot.o
Robot::ClearObservers()                           build/Robot.o
Robot::Drive(RobotCmd)                            build/Robot.o
                                                  build/Driver.o
Robot::GetGyro()                                  build/Robot.o
Robot::GetGyroOffset()                            build/Robot.o
Robot::GetInfo()                                  build/Robot.o
                                                  build/Driver.o
                                                  build/Navigator.o
Robot::GetMotorEncoder(long&, long&)              build/Robot.o
Robot::Instance()                                 build/Robot.o
                                                  build/Technic.o
                                                  build/PositionEstimation.o
                                                  build/Driver.o
                                                  build/Navigator.o
Robot::Process()                                  build/Robot.o
Robot::ResetBalanceAPI()                          build/Robot.o
Robot::Robot()                                    build/Robot.o
Robot::Robot()                                    build/Robot.o
Robot::SetGyro(short)                             build/Robot.o
Robot::SetGyroOffset(short)                       build/Robot.o
Robot::Stop()                                     build/Robot.o
                                                  build/Driver.o
Robot::TailControl(RobotCmd&)                     build/Robot.o
Robot::calcPWM(ecrobot::VectorT<short>)           build/Robot.o
Robot::theInstance_                               build/Robot.o
Robot::~Robot()                                   build/Robot.o
Robot::~Robot()                                   build/Robot.o
RobotObserver::Notify(Robot::RobotEvent)          build/Driver.o
RobotObserver::~RobotObserver()                   build/Driver.o
RobotObserver::~RobotObserver()                   build/Driver.o
Schedule                                          build/kernel/task_manage.o
SetAbsAlarm                                       build/kernel/alarm.o
SetEvent                                          build/kernel/event.o
                                                  build/rtoscalls.o
                                                  build/./kernel_cfg.o
SetRelAlarm                                       build/kernel/alarm.o
                                                  build/Driver.o
ShutdownHook                                      /home/nxtOSEK/ecrobot/../ecrobot/libecrobot.a(osek_hook.o)
                                                  build/kernel/osctl.o
ShutdownOS                                        build/kernel/osctl.o
SignalCounter                                     build/kernel/alarm.o
                                                  build/Driver.o
Sleep                                             build/rtoscalls.o
                                                  /home/nxtOSEK/ecrobot/../ecrobot/libecrobot++.a(Clock.o)
SleepI2C                                          build/rtoscalls.o
                                                  /home/nxtOSEK/ecrobot/../ecrobot/libecrobot++.a(I2c.o)
Sleep_msec(unsigned long)                         build/utils.o
                                                  build/Driver.o
                                                  build/Robot.o
SleeperMonitor                                    build/rtoscalls.o
                                                  build/Driver.o
StartOS                                           build/kernel/osctl.o
                                                  build/ecrobot.o
StartupHook                                       /home/nxtOSEK/ecrobot/../ecrobot/libecrobot.a(osek_hook.o)
                                                  build/kernel/osctl.o
SuspendAllInterrupts                              build/kernel/interrupt.o
SuspendOSInterrupts                               build/kernel/interrupt.o
SysTimerCnt                                       build/./kernel_cfg.o
                                                  build/Driver.o
TaskDrive                                         build/./kernel_cfg.o
TaskMainTaskDrive                                 build/Driver.o
                                                  build/./kernel_cfg.o
TaskMainTaskRobot                                 build/Robot.o
                                                  build/./kernel_cfg.o
TaskRobot                                         build/./kernel_cfg.o
TecBezierTrace::AlterCtlPoint(long&)              build/TechBezierTrace.o
TecBezierTrace::CalcDirection(float&)             build/TechBezierTrace.o
TecBezierTrace::CalcParamT(long&)                 build/TechBezierTrace.o
TecBezierTrace::CalcPoint(float&)                 build/TechBezierTrace.o
TecBezierTrace::Calclate(_Position&)              build/TechBezierTrace.o
TecBezierTrace::Init(NavInfo, Vec const*, long const*, long, bool) build/TechBezierTrace.o
TecBezierTrace::isFinished()                      build/TechBezierTrace.o
TecBezierTrace::isLastCtlPoints()                 build/TechBezierTrace.o
TecMusic::Instance()                              build/Technic.o
                                                  build/Driver.o
TecMusic::Player()                                build/Technic.o
                                                  build/Driver.o
TecMusic::StartMusic(unsigned char*)              build/Technic.o
TecMusic::StopMusic()                             build/Technic.o
TecMusic::TecMusic()                              build/Technic.o
TecMusic::TecMusic()                              build/Technic.o
TecMusic::note2freq(unsigned char)                build/Technic.o
TecMusic::theInstance_                            build/Technic.o
TecOnOffTrace::Calclate(short, short, short, Technic::DIRECTION) build/Technic.o
TecOnOffTrace::Init()                             build/Technic.o
TecPIDTrace::Calclate(short, short, Technic::DIRECTION) build/Technic.o
                                                  build/Driver.o
TecPIDTrace::Init()                               build/Technic.o
TecPIDTrace::TecPIDTrace()                        build/Technic.o
                                                  build/Driver.o
TecPIDTrace::TecPIDTrace()                        build/Technic.o
TecRotate::Calclate(short, short, Technic::DIRECTION) build/Technic.o
TecRotate::Init()                                 build/Technic.o
TecStraight::Calclate(short, short, short)        build/Technic.o
TecStraight::Init(RobotInfo&)                     build/Technic.o
TerminateTask                                     build/kernel/task_manage.o
                                                  build/Driver.o
                                                  build/Robot.o
Toccata_FugueInD                                  build/TechBezierTrace.o
                                                  build/Technic.o
                                                  build/Driver.o
Vec::add(Vec&)                                    build/Vec.o
Vec::cross(Vec&)                                  build/Vec.o
                                                  build/TechBezierTrace.o
Vec::dot(Vec&)                                    build/Vec.o
                                                  build/TechBezierTrace.o
Vec::length()                                     build/Vec.o
                                                  build/TechBezierTrace.o
Vec::sub(Vec&)                                    build/Vec.o
                                                  build/TechBezierTrace.o
Vec::unit()                                       build/Vec.o
                                                  build/TechBezierTrace.o
WaitEvent                                         build/kernel/event.o
                                                  build/Driver.o
                                                  build/rtoscalls.o
____adddf3_change_to_arm                          /home/GNUARM/bin/../lib/gcc/arm-elf/4.0.2/../../../../arm-elf/lib/thumb/interwork/libc.a(freer.o)
____adddf3_from_thumb                             /home/GNUARM/bin/../lib/gcc/arm-elf/4.0.2/../../../../arm-elf/lib/thumb/interwork/libc.a(freer.o)
____addsf3_change_to_arm                          /home/GNUARM/bin/../lib/gcc/arm-elf/4.0.2/../../../../arm-elf/lib/thumb/interwork/libc.a(freer.o)
____addsf3_from_thumb                             /home/GNUARM/bin/../lib/gcc/arm-elf/4.0.2/../../../../arm-elf/lib/thumb/interwork/libc.a(freer.o)
____divdf3_change_to_arm                          /home/GNUARM/bin/../lib/gcc/arm-elf/4.0.2/../../../../arm-elf/lib/thumb/interwork/libc.a(freer.o)
____divdf3_from_thumb                             /home/GNUARM/bin/../lib/gcc/arm-elf/4.0.2/../../../../arm-elf/lib/thumb/interwork/libc.a(freer.o)
____divsf3_change_to_arm                          /home/GNUARM/bin/../lib/gcc/arm-elf/4.0.2/../../../../arm-elf/lib/thumb/interwork/libc.a(freer.o)
____divsf3_from_thumb                             /home/GNUARM/bin/../lib/gcc/arm-elf/4.0.2/../../../../arm-elf/lib/thumb/interwork/libc.a(freer.o)
____eqdf2_change_to_arm                           /home/GNUARM/bin/../lib/gcc/arm-elf/4.0.2/../../../../arm-elf/lib/thumb/interwork/libc.a(freer.o)
____eqdf2_from_thumb                              /home/GNUARM/bin/../lib/gcc/arm-elf/4.0.2/../../../../arm-elf/lib/thumb/interwork/libc.a(freer.o)
____eqsf2_change_to_arm                           /home/GNUARM/bin/../lib/gcc/arm-elf/4.0.2/../../../../arm-elf/lib/thumb/interwork/libc.a(freer.o)
____eqsf2_from_thumb                              /home/GNUARM/bin/../lib/gcc/arm-elf/4.0.2/../../../../arm-elf/lib/thumb/interwork/libc.a(freer.o)
____extendsfdf2_change_to_arm                     /home/GNUARM/bin/../lib/gcc/arm-elf/4.0.2/../../../../arm-elf/lib/thumb/interwork/libc.a(freer.o)
____extendsfdf2_from_thumb                        /home/GNUARM/bin/../lib/gcc/arm-elf/4.0.2/../../../../arm-elf/lib/thumb/interwork/libc.a(freer.o)
____fixdfsi_change_to_arm                         /home/GNUARM/bin/../lib/gcc/arm-elf/4.0.2/../../../../arm-elf/lib/thumb/interwork/libc.a(freer.o)
____fixdfsi_from_thumb                            /home/GNUARM/bin/../lib/gcc/arm-elf/4.0.2/../../../../arm-elf/lib/thumb/interwork/libc.a(freer.o)
____fixsfsi_change_to_arm                         /home/GNUARM/bin/../lib/gcc/arm-elf/4.0.2/../../../../arm-elf/lib/thumb/interwork/libc.a(freer.o)
____fixsfsi_from_thumb                            /home/GNUARM/bin/../lib/gcc/arm-elf/4.0.2/../../../../arm-elf/lib/thumb/interwork/libc.a(freer.o)
____floatsidf_change_to_arm                       /home/GNUARM/bin/../lib/gcc/arm-elf/4.0.2/../../../../arm-elf/lib/thumb/interwork/libc.a(freer.o)
____floatsidf_from_thumb                          /home/GNUARM/bin/../lib/gcc/arm-elf/4.0.2/../../../../arm-elf/lib/thumb/interwork/libc.a(freer.o)
____floatsisf_change_to_arm                       /home/GNUARM/bin/../lib/gcc/arm-elf/4.0.2/../../../../arm-elf/lib/thumb/interwork/libc.a(freer.o)
____floatsisf_from_thumb                          /home/GNUARM/bin/../lib/gcc/arm-elf/4.0.2/../../../../arm-elf/lib/thumb/interwork/libc.a(freer.o)
____gedf2_change_to_arm                           /home/GNUARM/bin/../lib/gcc/arm-elf/4.0.2/../../../../arm-elf/lib/thumb/interwork/libc.a(freer.o)
____gedf2_from_thumb                              /home/GNUARM/bin/../lib/gcc/arm-elf/4.0.2/../../../../arm-elf/lib/thumb/interwork/libc.a(freer.o)
____gesf2_change_to_arm                           /home/GNUARM/bin/../lib/gcc/arm-elf/4.0.2/../../../../arm-elf/lib/thumb/interwork/libc.a(freer.o)
____gesf2_from_thumb                              /home/GNUARM/bin/../lib/gcc/arm-elf/4.0.2/../../../../arm-elf/lib/thumb/interwork/libc.a(freer.o)
____gtdf2_change_to_arm                           /home/GNUARM/bin/../lib/gcc/arm-elf/4.0.2/../../../../arm-elf/lib/thumb/interwork/libc.a(freer.o)
____gtdf2_from_thumb                              /home/GNUARM/bin/../lib/gcc/arm-elf/4.0.2/../../../../arm-elf/lib/thumb/interwork/libc.a(freer.o)
____gtsf2_change_to_arm                           /home/GNUARM/bin/../lib/gcc/arm-elf/4.0.2/../../../../arm-elf/lib/thumb/interwork/libc.a(freer.o)
____gtsf2_from_thumb                              /home/GNUARM/bin/../lib/gcc/arm-elf/4.0.2/../../../../arm-elf/lib/thumb/interwork/libc.a(freer.o)
____ledf2_change_to_arm                           /home/GNUARM/bin/../lib/gcc/arm-elf/4.0.2/../../../../arm-elf/lib/thumb/interwork/libc.a(freer.o)
____ledf2_from_thumb                              /home/GNUARM/bin/../lib/gcc/arm-elf/4.0.2/../../../../arm-elf/lib/thumb/interwork/libc.a(freer.o)
____lesf2_change_to_arm                           /home/GNUARM/bin/../lib/gcc/arm-elf/4.0.2/../../../../arm-elf/lib/thumb/interwork/libc.a(freer.o)
____lesf2_from_thumb                              /home/GNUARM/bin/../lib/gcc/arm-elf/4.0.2/../../../../arm-elf/lib/thumb/interwork/libc.a(freer.o)
____ltdf2_change_to_arm                           /home/GNUARM/bin/../lib/gcc/arm-elf/4.0.2/../../../../arm-elf/lib/thumb/interwork/libc.a(freer.o)
____ltdf2_from_thumb                              /home/GNUARM/bin/../lib/gcc/arm-elf/4.0.2/../../../../arm-elf/lib/thumb/interwork/libc.a(freer.o)
____ltsf2_change_to_arm                           /home/GNUARM/bin/../lib/gcc/arm-elf/4.0.2/../../../../arm-elf/lib/thumb/interwork/libc.a(freer.o)
____ltsf2_from_thumb                              /home/GNUARM/bin/../lib/gcc/arm-elf/4.0.2/../../../../arm-elf/lib/thumb/interwork/libc.a(freer.o)
____muldf3_change_to_arm                          /home/GNUARM/bin/../lib/gcc/arm-elf/4.0.2/../../../../arm-elf/lib/thumb/interwork/libc.a(freer.o)
____muldf3_from_thumb                             /home/GNUARM/bin/../lib/gcc/arm-elf/4.0.2/../../../../arm-elf/lib/thumb/interwork/libc.a(freer.o)
____mulsf3_change_to_arm                          /home/GNUARM/bin/../lib/gcc/arm-elf/4.0.2/../../../../arm-elf/lib/thumb/interwork/libc.a(freer.o)
____mulsf3_from_thumb                             /home/GNUARM/bin/../lib/gcc/arm-elf/4.0.2/../../../../arm-elf/lib/thumb/interwork/libc.a(freer.o)
____subdf3_change_to_arm                          /home/GNUARM/bin/../lib/gcc/arm-elf/4.0.2/../../../../arm-elf/lib/thumb/interwork/libc.a(freer.o)
____subdf3_from_thumb                             /home/GNUARM/bin/../lib/gcc/arm-elf/4.0.2/../../../../arm-elf/lib/thumb/interwork/libc.a(freer.o)
____subsf3_change_to_arm                          /home/GNUARM/bin/../lib/gcc/arm-elf/4.0.2/../../../../arm-elf/lib/thumb/interwork/libc.a(freer.o)
____subsf3_from_thumb                             /home/GNUARM/bin/../lib/gcc/arm-elf/4.0.2/../../../../arm-elf/lib/thumb/interwork/libc.a(freer.o)
____truncdfsf2_change_to_arm                      /home/GNUARM/bin/../lib/gcc/arm-elf/4.0.2/../../../../arm-elf/lib/thumb/interwork/libc.a(freer.o)
____truncdfsf2_from_thumb                         /home/GNUARM/bin/../lib/gcc/arm-elf/4.0.2/../../../../arm-elf/lib/thumb/interwork/libc.a(freer.o)
__adddf3                                          /home/GNUARM/bin/../lib/gcc/arm-elf/4.0.2/thumb/interwork/libgcc.a(_addsubdf3.o)
                                                  /home/GNUARM/bin/../lib/gcc/arm-elf/4.0.2/../../../../arm-elf/lib/thumb/interwork/libm.a(s_scalbn.o)
                                                  /home/GNUARM/bin/../lib/gcc/arm-elf/4.0.2/../../../../arm-elf/lib/thumb/interwork/libm.a(s_floor.o)
                                                  /home/GNUARM/bin/../lib/gcc/arm-elf/4.0.2/../../../../arm-elf/lib/thumb/interwork/libm.a(k_sin.o)
                                                  /home/GNUARM/bin/../lib/gcc/arm-elf/4.0.2/../../../../arm-elf/lib/thumb/interwork/libm.a(k_rem_pio2.o)
                                                  /home/GNUARM/bin/../lib/gcc/arm-elf/4.0.2/../../../../arm-elf/lib/thumb/interwork/libm.a(k_cos.o)
                                                  /home/GNUARM/bin/../lib/gcc/arm-elf/4.0.2/../../../../arm-elf/lib/thumb/interwork/libm.a(e_sqrt.o)
                                                  /home/GNUARM/bin/../lib/gcc/arm-elf/4.0.2/../../../../arm-elf/lib/thumb/interwork/libm.a(e_rem_pio2.o)
                                                  build/TechBezierTrace.o
                                                  build/Technic.o
                                                  build/PositionEstimation.o
                                                  build/Navigator.o
__addsf3                                          /home/GNUARM/bin/../lib/gcc/arm-elf/4.0.2/thumb/interwork/libgcc.a(_addsubsf3.o)
                                                  /home/nxtOSEK/ecrobot/../ecrobot/libnxtway_gs_balancer.a(balancer.o)
                                                  build/PIDController.o
                                                  build/Vec.o
                                                  build/Technic.o
                                                  build/MarkerCheck.o
__aeabi_cdcmpeq                                   /home/GNUARM/bin/../lib/gcc/arm-elf/4.0.2/thumb/interwork/libgcc.a(_cmpdf2.o)
__aeabi_cdcmple                                   /home/GNUARM/bin/../lib/gcc/arm-elf/4.0.2/thumb/interwork/libgcc.a(_cmpdf2.o)
__aeabi_cdrcmple                                  /home/GNUARM/bin/../lib/gcc/arm-elf/4.0.2/thumb/interwork/libgcc.a(_cmpdf2.o)
__aeabi_cfcmpeq                                   /home/GNUARM/bin/../lib/gcc/arm-elf/4.0.2/thumb/interwork/libgcc.a(_cmpsf2.o)
__aeabi_cfcmple                                   /home/GNUARM/bin/../lib/gcc/arm-elf/4.0.2/thumb/interwork/libgcc.a(_cmpsf2.o)
__aeabi_cfrcmple                                  /home/GNUARM/bin/../lib/gcc/arm-elf/4.0.2/thumb/interwork/libgcc.a(_cmpsf2.o)
__aeabi_d2f                                       /home/GNUARM/bin/../lib/gcc/arm-elf/4.0.2/thumb/interwork/libgcc.a(_truncdfsf2.o)
__aeabi_d2iz                                      /home/GNUARM/bin/../lib/gcc/arm-elf/4.0.2/thumb/interwork/libgcc.a(_fixdfsi.o)
__aeabi_dadd                                      /home/GNUARM/bin/../lib/gcc/arm-elf/4.0.2/thumb/interwork/libgcc.a(_addsubdf3.o)
__aeabi_dcmpeq                                    /home/GNUARM/bin/../lib/gcc/arm-elf/4.0.2/thumb/interwork/libgcc.a(_cmpdf2.o)
__aeabi_dcmpge                                    /home/GNUARM/bin/../lib/gcc/arm-elf/4.0.2/thumb/interwork/libgcc.a(_cmpdf2.o)
__aeabi_dcmpgt                                    /home/GNUARM/bin/../lib/gcc/arm-elf/4.0.2/thumb/interwork/libgcc.a(_cmpdf2.o)
__aeabi_dcmple                                    /home/GNUARM/bin/../lib/gcc/arm-elf/4.0.2/thumb/interwork/libgcc.a(_cmpdf2.o)
__aeabi_dcmplt                                    /home/GNUARM/bin/../lib/gcc/arm-elf/4.0.2/thumb/interwork/libgcc.a(_cmpdf2.o)
__aeabi_ddiv                                      /home/GNUARM/bin/../lib/gcc/arm-elf/4.0.2/thumb/interwork/libgcc.a(_muldivdf3.o)
__aeabi_dmul                                      /home/GNUARM/bin/../lib/gcc/arm-elf/4.0.2/thumb/interwork/libgcc.a(_muldivdf3.o)
__aeabi_drsub                                     /home/GNUARM/bin/../lib/gcc/arm-elf/4.0.2/thumb/interwork/libgcc.a(_addsubdf3.o)
__aeabi_dsub                                      /home/GNUARM/bin/../lib/gcc/arm-elf/4.0.2/thumb/interwork/libgcc.a(_addsubdf3.o)
__aeabi_f2d                                       /home/GNUARM/bin/../lib/gcc/arm-elf/4.0.2/thumb/interwork/libgcc.a(_addsubdf3.o)
__aeabi_f2iz                                      /home/GNUARM/bin/../lib/gcc/arm-elf/4.0.2/thumb/interwork/libgcc.a(_fixsfsi.o)
__aeabi_fadd                                      /home/GNUARM/bin/../lib/gcc/arm-elf/4.0.2/thumb/interwork/libgcc.a(_addsubsf3.o)
__aeabi_fcmpeq                                    /home/GNUARM/bin/../lib/gcc/arm-elf/4.0.2/thumb/interwork/libgcc.a(_cmpsf2.o)
__aeabi_fcmpge                                    /home/GNUARM/bin/../lib/gcc/arm-elf/4.0.2/thumb/interwork/libgcc.a(_cmpsf2.o)
__aeabi_fcmpgt                                    /home/GNUARM/bin/../lib/gcc/arm-elf/4.0.2/thumb/interwork/libgcc.a(_cmpsf2.o)
__aeabi_fcmple                                    /home/GNUARM/bin/../lib/gcc/arm-elf/4.0.2/thumb/interwork/libgcc.a(_cmpsf2.o)
__aeabi_fcmplt                                    /home/GNUARM/bin/../lib/gcc/arm-elf/4.0.2/thumb/interwork/libgcc.a(_cmpsf2.o)
__aeabi_fdiv                                      /home/GNUARM/bin/../lib/gcc/arm-elf/4.0.2/thumb/interwork/libgcc.a(_muldivsf3.o)
__aeabi_fmul                                      /home/GNUARM/bin/../lib/gcc/arm-elf/4.0.2/thumb/interwork/libgcc.a(_muldivsf3.o)
__aeabi_frsub                                     /home/GNUARM/bin/../lib/gcc/arm-elf/4.0.2/thumb/interwork/libgcc.a(_addsubsf3.o)
__aeabi_fsub                                      /home/GNUARM/bin/../lib/gcc/arm-elf/4.0.2/thumb/interwork/libgcc.a(_addsubsf3.o)
__aeabi_i2d                                       /home/GNUARM/bin/../lib/gcc/arm-elf/4.0.2/thumb/interwork/libgcc.a(_addsubdf3.o)
__aeabi_i2f                                       /home/GNUARM/bin/../lib/gcc/arm-elf/4.0.2/thumb/interwork/libgcc.a(_addsubsf3.o)
__aeabi_idiv0                                     /home/GNUARM/bin/../lib/gcc/arm-elf/4.0.2/thumb/interwork/libgcc.a(_dvmd_tls.o)
__aeabi_idivmod                                   /home/GNUARM/bin/../lib/gcc/arm-elf/4.0.2/thumb/interwork/libgcc.a(_divsi3.o)
__aeabi_l2d                                       /home/GNUARM/bin/../lib/gcc/arm-elf/4.0.2/thumb/interwork/libgcc.a(_addsubdf3.o)
__aeabi_l2f                                       /home/GNUARM/bin/../lib/gcc/arm-elf/4.0.2/thumb/interwork/libgcc.a(_addsubsf3.o)
__aeabi_ldiv0                                     /home/GNUARM/bin/../lib/gcc/arm-elf/4.0.2/thumb/interwork/libgcc.a(_dvmd_tls.o)
__aeabi_ui2d                                      /home/GNUARM/bin/../lib/gcc/arm-elf/4.0.2/thumb/interwork/libgcc.a(_addsubdf3.o)
__aeabi_ui2f                                      /home/GNUARM/bin/../lib/gcc/arm-elf/4.0.2/thumb/interwork/libgcc.a(_addsubsf3.o)
__aeabi_uidivmod                                  /home/GNUARM/bin/../lib/gcc/arm-elf/4.0.2/thumb/interwork/libgcc.a(_udivsi3.o)
__aeabi_ul2d                                      /home/GNUARM/bin/../lib/gcc/arm-elf/4.0.2/thumb/interwork/libgcc.a(_addsubdf3.o)
__aeabi_ul2f                                      /home/GNUARM/bin/../lib/gcc/arm-elf/4.0.2/thumb/interwork/libgcc.a(_addsubsf3.o)
__bss_end__                                       build/ecrobot_init.o
__bss_start__                                     build/ecrobot_init.o
__call_posttaskhook_from_arm                      /home/GNUARM/bin/../lib/gcc/arm-elf/4.0.2/../../../../arm-elf/lib/thumb/interwork/libc.a(freer.o)
__call_pretaskhook_from_arm                       /home/GNUARM/bin/../lib/gcc/arm-elf/4.0.2/../../../../arm-elf/lib/thumb/interwork/libc.a(freer.o)
__clz_tab                                         /home/GNUARM/bin/../lib/gcc/arm-elf/4.0.2/thumb/interwork/libgcc.a(_clz.o)
                                                  /home/GNUARM/bin/../lib/gcc/arm-elf/4.0.2/thumb/interwork/libgcc.a(_divdi3.o)
__cmpdf2                                          /home/GNUARM/bin/../lib/gcc/arm-elf/4.0.2/thumb/interwork/libgcc.a(_cmpdf2.o)
__cmpsf2                                          /home/GNUARM/bin/../lib/gcc/arm-elf/4.0.2/thumb/interwork/libgcc.a(_cmpsf2.o)
__ctor_begin                                      build/ecrobot_base.o
__ctor_end                                        build/ecrobot_base.o
__data_load_end__                                 build/ecrobot_init.o
__data_load_start__                               build/ecrobot_init.o
__data_ram_start__                                build/ecrobot_init.o
__disable_int_change_to_arm                       /home/GNUARM/bin/../lib/gcc/arm-elf/4.0.2/../../../../arm-elf/lib/thumb/interwork/libc.a(freer.o)
__disable_int_from_thumb                          /home/GNUARM/bin/../lib/gcc/arm-elf/4.0.2/../../../../arm-elf/lib/thumb/interwork/libc.a(freer.o)
__dispatch_change_to_arm                          /home/GNUARM/bin/../lib/gcc/arm-elf/4.0.2/../../../../arm-elf/lib/thumb/interwork/libc.a(freer.o)
__dispatch_from_thumb                             /home/GNUARM/bin/../lib/gcc/arm-elf/4.0.2/../../../../arm-elf/lib/thumb/interwork/libc.a(freer.o)
__display_bios_status_change_to_arm               /home/GNUARM/bin/../lib/gcc/arm-elf/4.0.2/../../../../arm-elf/lib/thumb/interwork/libc.a(freer.o)
__display_bios_status_from_thumb                  /home/GNUARM/bin/../lib/gcc/arm-elf/4.0.2/../../../../arm-elf/lib/thumb/interwork/libc.a(freer.o)
__div0                                            /home/GNUARM/bin/../lib/gcc/arm-elf/4.0.2/thumb/interwork/libgcc.a(_dvmd_tls.o)
                                                  /home/GNUARM/bin/../lib/gcc/arm-elf/4.0.2/thumb/interwork/libgcc.a(_modsi3.o)
                                                  /home/GNUARM/bin/../lib/gcc/arm-elf/4.0.2/thumb/interwork/libgcc.a(_umodsi3.o)
                                                  /home/GNUARM/bin/../lib/gcc/arm-elf/4.0.2/thumb/interwork/libgcc.a(_divsi3.o)
                                                  /home/GNUARM/bin/../lib/gcc/arm-elf/4.0.2/thumb/interwork/libgcc.a(_udivsi3.o)
__divdf3                                          /home/GNUARM/bin/../lib/gcc/arm-elf/4.0.2/thumb/interwork/libgcc.a(_muldivdf3.o)
                                                  /home/GNUARM/bin/../lib/gcc/arm-elf/4.0.2/../../../../arm-elf/lib/thumb/interwork/libm.a(e_sqrt.o)
                                                  /home/GNUARM/bin/../lib/gcc/arm-elf/4.0.2/../../../../arm-elf/lib/thumb/interwork/libm.a(w_sqrt.o)
                                                  build/Technic.o
                                                  build/PositionEstimation.o
                                                  build/Navigator.o
                                                  build/Robot.o
__divdi3                                          /home/GNUARM/bin/../lib/gcc/arm-elf/4.0.2/thumb/interwork/libgcc.a(_divdi3.o)
                                                  /home/nxtOSEK/ecrobot/../ecrobot/libecrobot.a(sound.oram)
__divsf3                                          /home/GNUARM/bin/../lib/gcc/arm-elf/4.0.2/thumb/interwork/libgcc.a(_muldivsf3.o)
                                                  /home/nxtOSEK/ecrobot/../ecrobot/libnxtway_gs_balancer.a(balancer.o)
                                                  build/TechBezierTrace.o
                                                  build/Vec.o
                                                  build/Navigator.o
__divsi3                                          /home/GNUARM/bin/../lib/gcc/arm-elf/4.0.2/thumb/interwork/libgcc.a(_divsi3.o)
                                                  /home/GNUARM/bin/../lib/gcc/arm-elf/4.0.2/../../../../arm-elf/lib/thumb/interwork/libm.a(k_rem_pio2.o)
                                                  /home/nxtOSEK/ecrobot/../ecrobot/libecrobot.a(sound.oram)
                                                  /home/nxtOSEK/ecrobot/../ecrobot/libecrobot.a(uart.oram)
                                                  build/Technic.o
__dtor_begin                                      build/ecrobot_base.o
__dtor_end                                        build/ecrobot_base.o
__ecrobot_debug1_from_arm                         /home/GNUARM/bin/../lib/gcc/arm-elf/4.0.2/../../../../arm-elf/lib/thumb/interwork/libc.a(freer.o)
__ecrobot_debug2_from_arm                         /home/GNUARM/bin/../lib/gcc/arm-elf/4.0.2/../../../../arm-elf/lib/thumb/interwork/libc.a(freer.o)
__enable_int_change_to_arm                        /home/GNUARM/bin/../lib/gcc/arm-elf/4.0.2/../../../../arm-elf/lib/thumb/interwork/libc.a(freer.o)
__enable_int_from_thumb                           /home/GNUARM/bin/../lib/gcc/arm-elf/4.0.2/../../../../arm-elf/lib/thumb/interwork/libc.a(freer.o)
__eqdf2                                           /home/GNUARM/bin/../lib/gcc/arm-elf/4.0.2/thumb/interwork/libgcc.a(_cmpdf2.o)
                                                  /home/GNUARM/bin/../lib/gcc/arm-elf/4.0.2/../../../../arm-elf/lib/thumb/interwork/libm.a(k_rem_pio2.o)
                                                  /home/GNUARM/bin/../lib/gcc/arm-elf/4.0.2/../../../../arm-elf/lib/thumb/interwork/libm.a(e_rem_pio2.o)
__eqsf2                                           /home/GNUARM/bin/../lib/gcc/arm-elf/4.0.2/thumb/interwork/libgcc.a(_cmpsf2.o)
                                                  build/Vec.o
__errno                                           /home/GNUARM/bin/../lib/gcc/arm-elf/4.0.2/../../../../arm-elf/lib/thumb/interwork/libc.a(errno.o)
                                                  /home/GNUARM/bin/../lib/gcc/arm-elf/4.0.2/../../../../arm-elf/lib/thumb/interwork/libm.a(w_sqrt.o)
__exit_and_dispatch_change_to_arm                 /home/GNUARM/bin/../lib/gcc/arm-elf/4.0.2/../../../../arm-elf/lib/thumb/interwork/libc.a(freer.o)
__exit_and_dispatch_from_thumb                    /home/GNUARM/bin/../lib/gcc/arm-elf/4.0.2/../../../../arm-elf/lib/thumb/interwork/libc.a(freer.o)
__extendsfdf2                                     /home/GNUARM/bin/../lib/gcc/arm-elf/4.0.2/thumb/interwork/libgcc.a(_addsubdf3.o)
                                                  build/TechBezierTrace.o
                                                  build/Vec.o
                                                  build/Technic.o
                                                  build/MarkerCheck.o
                                                  build/Navigator.o
__fdlib_version                                   /home/GNUARM/bin/../lib/gcc/arm-elf/4.0.2/../../../../arm-elf/lib/thumb/interwork/libm.a(s_lib_ver.o)
                                                  /home/GNUARM/bin/../lib/gcc/arm-elf/4.0.2/../../../../arm-elf/lib/thumb/interwork/libm.a(w_sqrt.o)
__fixdfsi                                         /home/GNUARM/bin/../lib/gcc/arm-elf/4.0.2/thumb/interwork/libgcc.a(_fixdfsi.o)
                                                  /home/GNUARM/bin/../lib/gcc/arm-elf/4.0.2/../../../../arm-elf/lib/thumb/interwork/libm.a(k_sin.o)
                                                  /home/GNUARM/bin/../lib/gcc/arm-elf/4.0.2/../../../../arm-elf/lib/thumb/interwork/libm.a(k_rem_pio2.o)
                                                  /home/GNUARM/bin/../lib/gcc/arm-elf/4.0.2/../../../../arm-elf/lib/thumb/interwork/libm.a(k_cos.o)
                                                  /home/GNUARM/bin/../lib/gcc/arm-elf/4.0.2/../../../../arm-elf/lib/thumb/interwork/libm.a(e_rem_pio2.o)
                                                  build/TechBezierTrace.o
                                                  build/PositionEstimation.o
                                                  build/Robot.o
__fixsfsi                                         /home/GNUARM/bin/../lib/gcc/arm-elf/4.0.2/thumb/interwork/libgcc.a(_fixsfsi.o)
                                                  /home/nxtOSEK/ecrobot/../ecrobot/libnxtway_gs_balancer.a(balancer.o)
                                                  build/Technic.o
                                                  build/Robot.o
__floatdidf                                       /home/GNUARM/bin/../lib/gcc/arm-elf/4.0.2/thumb/interwork/libgcc.a(_addsubdf3.o)
__floatdisf                                       /home/GNUARM/bin/../lib/gcc/arm-elf/4.0.2/thumb/interwork/libgcc.a(_addsubsf3.o)
__floatsidf                                       /home/GNUARM/bin/../lib/gcc/arm-elf/4.0.2/thumb/interwork/libgcc.a(_addsubdf3.o)
                                                  /home/GNUARM/bin/../lib/gcc/arm-elf/4.0.2/../../../../arm-elf/lib/thumb/interwork/libm.a(k_rem_pio2.o)
                                                  /home/GNUARM/bin/../lib/gcc/arm-elf/4.0.2/../../../../arm-elf/lib/thumb/interwork/libm.a(e_rem_pio2.o)
                                                  /home/nxtOSEK/ecrobot/../ecrobot/libecrobot.a(colorsensor.o)
                                                  build/Technic.o
                                                  build/PositionEstimation.o
                                                  build/Navigator.o
__floatsisf                                       /home/GNUARM/bin/../lib/gcc/arm-elf/4.0.2/thumb/interwork/libgcc.a(_addsubsf3.o)
                                                  build/TechBezierTrace.o
                                                  build/Technic.o
                                                  build/Navigator.o
                                                  build/Robot.o
__floatundidf                                     /home/GNUARM/bin/../lib/gcc/arm-elf/4.0.2/thumb/interwork/libgcc.a(_addsubdf3.o)
__floatundisf                                     /home/GNUARM/bin/../lib/gcc/arm-elf/4.0.2/thumb/interwork/libgcc.a(_addsubsf3.o)
__floatunsidf                                     /home/GNUARM/bin/../lib/gcc/arm-elf/4.0.2/thumb/interwork/libgcc.a(_addsubdf3.o)
__floatunsisf                                     /home/GNUARM/bin/../lib/gcc/arm-elf/4.0.2/thumb/interwork/libgcc.a(_addsubsf3.o)
__gedf2                                           /home/GNUARM/bin/../lib/gcc/arm-elf/4.0.2/thumb/interwork/libgcc.a(_cmpdf2.o)
                                                  /home/GNUARM/bin/../lib/gcc/arm-elf/4.0.2/../../../../arm-elf/lib/thumb/interwork/libm.a(k_rem_pio2.o)
__gesf2                                           /home/GNUARM/bin/../lib/gcc/arm-elf/4.0.2/thumb/interwork/libgcc.a(_cmpsf2.o)
                                                  /home/nxtOSEK/ecrobot/../ecrobot/libnxtway_gs_balancer.a(balancer.o)
                                                  build/Navigator.o
__gtdf2                                           /home/GNUARM/bin/../lib/gcc/arm-elf/4.0.2/thumb/interwork/libgcc.a(_cmpdf2.o)
                                                  /home/GNUARM/bin/../lib/gcc/arm-elf/4.0.2/../../../../arm-elf/lib/thumb/interwork/libm.a(s_floor.o)
                                                  /home/nxtOSEK/ecrobot/../ecrobot/libecrobot.a(colorsensor.o)
__gtsf2                                           /home/GNUARM/bin/../lib/gcc/arm-elf/4.0.2/thumb/interwork/libgcc.a(_cmpsf2.o)
                                                  build/TechBezierTrace.o
                                                  build/Technic.o
                                                  build/Robot.o
__ieee754_rem_pio2                                /home/GNUARM/bin/../lib/gcc/arm-elf/4.0.2/../../../../arm-elf/lib/thumb/interwork/libm.a(e_rem_pio2.o)
                                                  /home/GNUARM/bin/../lib/gcc/arm-elf/4.0.2/../../../../arm-elf/lib/thumb/interwork/libm.a(s_sin.o)
                                                  /home/GNUARM/bin/../lib/gcc/arm-elf/4.0.2/../../../../arm-elf/lib/thumb/interwork/libm.a(s_cos.o)
__ieee754_sqrt                                    /home/GNUARM/bin/../lib/gcc/arm-elf/4.0.2/../../../../arm-elf/lib/thumb/interwork/libm.a(e_sqrt.o)
                                                  /home/GNUARM/bin/../lib/gcc/arm-elf/4.0.2/../../../../arm-elf/lib/thumb/interwork/libm.a(w_sqrt.o)
__interrupts_enable_change_to_arm                 /home/GNUARM/bin/../lib/gcc/arm-elf/4.0.2/../../../../arm-elf/lib/thumb/interwork/libc.a(freer.o)
__interrupts_enable_from_thumb                    /home/GNUARM/bin/../lib/gcc/arm-elf/4.0.2/../../../../arm-elf/lib/thumb/interwork/libc.a(freer.o)
__interrupts_get_and_disable_change_to_arm        /home/GNUARM/bin/../lib/gcc/arm-elf/4.0.2/../../../../arm-elf/lib/thumb/interwork/libc.a(freer.o)
__interrupts_get_and_disable_from_thumb           /home/GNUARM/bin/../lib/gcc/arm-elf/4.0.2/../../../../arm-elf/lib/thumb/interwork/libc.a(freer.o)
__irq_stack__                                     build/ecrobot_init.o
__kernel_cos                                      /home/GNUARM/bin/../lib/gcc/arm-elf/4.0.2/../../../../arm-elf/lib/thumb/interwork/libm.a(k_cos.o)
                                                  /home/GNUARM/bin/../lib/gcc/arm-elf/4.0.2/../../../../arm-elf/lib/thumb/interwork/libm.a(s_sin.o)
                                                  /home/GNUARM/bin/../lib/gcc/arm-elf/4.0.2/../../../../arm-elf/lib/thumb/interwork/libm.a(s_cos.o)
__kernel_rem_pio2                                 /home/GNUARM/bin/../lib/gcc/arm-elf/4.0.2/../../../../arm-elf/lib/thumb/interwork/libm.a(k_rem_pio2.o)
                                                  /home/GNUARM/bin/../lib/gcc/arm-elf/4.0.2/../../../../arm-elf/lib/thumb/interwork/libm.a(e_rem_pio2.o)
__kernel_sin                                      /home/GNUARM/bin/../lib/gcc/arm-elf/4.0.2/../../../../arm-elf/lib/thumb/interwork/libm.a(k_sin.o)
                                                  /home/GNUARM/bin/../lib/gcc/arm-elf/4.0.2/../../../../arm-elf/lib/thumb/interwork/libm.a(s_sin.o)
                                                  /home/GNUARM/bin/../lib/gcc/arm-elf/4.0.2/../../../../arm-elf/lib/thumb/interwork/libm.a(s_cos.o)
__ledf2                                           /home/GNUARM/bin/../lib/gcc/arm-elf/4.0.2/thumb/interwork/libgcc.a(_cmpdf2.o)
                                                  build/MarkerCheck.o
__lesf2                                           /home/GNUARM/bin/../lib/gcc/arm-elf/4.0.2/thumb/interwork/libgcc.a(_cmpsf2.o)
                                                  /home/nxtOSEK/ecrobot/../ecrobot/libnxtway_gs_balancer.a(balancer.o)
__ltdf2                                           /home/GNUARM/bin/../lib/gcc/arm-elf/4.0.2/thumb/interwork/libgcc.a(_cmpdf2.o)
                                                  /home/GNUARM/bin/../lib/gcc/arm-elf/4.0.2/../../../../arm-elf/lib/thumb/interwork/libm.a(w_sqrt.o)
                                                  build/Navigator.o
__ltsf2                                           /home/GNUARM/bin/../lib/gcc/arm-elf/4.0.2/thumb/interwork/libgcc.a(_cmpsf2.o)
                                                  build/TechBezierTrace.o
                                                  build/Robot.o
__malloc_av_                                      /home/GNUARM/bin/../lib/gcc/arm-elf/4.0.2/../../../../arm-elf/lib/thumb/interwork/libc.a(mallocr.o)
                                                  /home/GNUARM/bin/../lib/gcc/arm-elf/4.0.2/../../../../arm-elf/lib/thumb/interwork/libc.a(freer.o)
__malloc_current_mallinfo                         /home/GNUARM/bin/../lib/gcc/arm-elf/4.0.2/../../../../arm-elf/lib/thumb/interwork/libc.a(mallocr.o)
                                                  /home/GNUARM/bin/../lib/gcc/arm-elf/4.0.2/../../../../arm-elf/lib/thumb/interwork/libc.a(freer.o)
__malloc_lock                                     /home/GNUARM/bin/../lib/gcc/arm-elf/4.0.2/../../../../arm-elf/lib/thumb/interwork/libc.a(mlock.o)
                                                  /home/GNUARM/bin/../lib/gcc/arm-elf/4.0.2/../../../../arm-elf/lib/thumb/interwork/libc.a(freer.o)
                                                  /home/GNUARM/bin/../lib/gcc/arm-elf/4.0.2/../../../../arm-elf/lib/thumb/interwork/libc.a(mallocr.o)
__malloc_max_sbrked_mem                           /home/GNUARM/bin/../lib/gcc/arm-elf/4.0.2/../../../../arm-elf/lib/thumb/interwork/libc.a(mallocr.o)
__malloc_max_total_mem                            /home/GNUARM/bin/../lib/gcc/arm-elf/4.0.2/../../../../arm-elf/lib/thumb/interwork/libc.a(mallocr.o)
__malloc_sbrk_base                                /home/GNUARM/bin/../lib/gcc/arm-elf/4.0.2/../../../../arm-elf/lib/thumb/interwork/libc.a(mallocr.o)
                                                  /home/GNUARM/bin/../lib/gcc/arm-elf/4.0.2/../../../../arm-elf/lib/thumb/interwork/libc.a(freer.o)
__malloc_top_pad                                  /home/GNUARM/bin/../lib/gcc/arm-elf/4.0.2/../../../../arm-elf/lib/thumb/interwork/libc.a(mallocr.o)
                                                  /home/GNUARM/bin/../lib/gcc/arm-elf/4.0.2/../../../../arm-elf/lib/thumb/interwork/libc.a(freer.o)
__malloc_trim_threshold                           /home/GNUARM/bin/../lib/gcc/arm-elf/4.0.2/../../../../arm-elf/lib/thumb/interwork/libc.a(mallocr.o)
                                                  /home/GNUARM/bin/../lib/gcc/arm-elf/4.0.2/../../../../arm-elf/lib/thumb/interwork/libc.a(freer.o)
__malloc_unlock                                   /home/GNUARM/bin/../lib/gcc/arm-elf/4.0.2/../../../../arm-elf/lib/thumb/interwork/libc.a(mlock.o)
                                                  /home/GNUARM/bin/../lib/gcc/arm-elf/4.0.2/../../../../arm-elf/lib/thumb/interwork/libc.a(freer.o)
                                                  /home/GNUARM/bin/../lib/gcc/arm-elf/4.0.2/../../../../arm-elf/lib/thumb/interwork/libc.a(mallocr.o)
__modsi3                                          /home/GNUARM/bin/../lib/gcc/arm-elf/4.0.2/thumb/interwork/libgcc.a(_modsi3.o)
                                                  /home/nxtOSEK/ecrobot/../ecrobot/libecrobot.a(flash_loader.oram)
                                                  /home/nxtOSEK/ecrobot/../ecrobot/libecrobot.a(sound.oram)
__muldf3                                          /home/GNUARM/bin/../lib/gcc/arm-elf/4.0.2/thumb/interwork/libgcc.a(_muldivdf3.o)
                                                  /home/GNUARM/bin/../lib/gcc/arm-elf/4.0.2/../../../../arm-elf/lib/thumb/interwork/libm.a(s_scalbn.o)
                                                  /home/GNUARM/bin/../lib/gcc/arm-elf/4.0.2/../../../../arm-elf/lib/thumb/interwork/libm.a(k_sin.o)
                                                  /home/GNUARM/bin/../lib/gcc/arm-elf/4.0.2/../../../../arm-elf/lib/thumb/interwork/libm.a(k_rem_pio2.o)
                                                  /home/GNUARM/bin/../lib/gcc/arm-elf/4.0.2/../../../../arm-elf/lib/thumb/interwork/libm.a(k_cos.o)
                                                  /home/GNUARM/bin/../lib/gcc/arm-elf/4.0.2/../../../../arm-elf/lib/thumb/interwork/libm.a(e_sqrt.o)
                                                  /home/GNUARM/bin/../lib/gcc/arm-elf/4.0.2/../../../../arm-elf/lib/thumb/interwork/libm.a(e_rem_pio2.o)
                                                  /home/nxtOSEK/ecrobot/../ecrobot/libecrobot.a(colorsensor.o)
                                                  build/TechBezierTrace.o
                                                  build/Technic.o
                                                  build/PositionEstimation.o
                                                  build/Navigator.o
                                                  build/Robot.o
__muldi3                                          /home/GNUARM/bin/../lib/gcc/arm-elf/4.0.2/thumb/interwork/libgcc.a(_muldi3.o)
                                                  /home/nxtOSEK/ecrobot/../ecrobot/libecrobot.a(sound.oram)
__mulsf3                                          /home/GNUARM/bin/../lib/gcc/arm-elf/4.0.2/thumb/interwork/libgcc.a(_muldivsf3.o)
                                                  /home/nxtOSEK/ecrobot/../ecrobot/libnxtway_gs_balancer.a(balancer.o)
                                                  build/PIDController.o
                                                  build/TechBezierTrace.o
                                                  build/Vec.o
                                                  build/Robot.o
__nedf2                                           /home/GNUARM/bin/../lib/gcc/arm-elf/4.0.2/thumb/interwork/libgcc.a(_cmpdf2.o)
__nesf2                                           /home/GNUARM/bin/../lib/gcc/arm-elf/4.0.2/thumb/interwork/libgcc.a(_cmpsf2.o)
__ramtext_load_end__                              build/ecrobot_init.o
__ramtext_load_start__                            build/ecrobot_init.o
__ramtext_ram_start__                             build/ecrobot_init.o
__stack_end__                                     build/ecrobot_init.o
__stack_start__                                   build/ecrobot_init.o
__start_change_to_arm                             /home/GNUARM/bin/../lib/gcc/arm-elf/4.0.2/../../../../arm-elf/lib/thumb/interwork/libc.a(freer.o)
__start_dispatch_change_to_arm                    /home/GNUARM/bin/../lib/gcc/arm-elf/4.0.2/../../../../arm-elf/lib/thumb/interwork/libc.a(freer.o)
__start_dispatch_from_thumb                       /home/GNUARM/bin/../lib/gcc/arm-elf/4.0.2/../../../../arm-elf/lib/thumb/interwork/libc.a(freer.o)
__start_from_thumb                                /home/GNUARM/bin/../lib/gcc/arm-elf/4.0.2/../../../../arm-elf/lib/thumb/interwork/libc.a(freer.o)
__subdf3                                          /home/GNUARM/bin/../lib/gcc/arm-elf/4.0.2/thumb/interwork/libgcc.a(_addsubdf3.o)
                                                  /home/GNUARM/bin/../lib/gcc/arm-elf/4.0.2/../../../../arm-elf/lib/thumb/interwork/libm.a(k_sin.o)
                                                  /home/GNUARM/bin/../lib/gcc/arm-elf/4.0.2/../../../../arm-elf/lib/thumb/interwork/libm.a(k_rem_pio2.o)
                                                  /home/GNUARM/bin/../lib/gcc/arm-elf/4.0.2/../../../../arm-elf/lib/thumb/interwork/libm.a(k_cos.o)
                                                  /home/GNUARM/bin/../lib/gcc/arm-elf/4.0.2/../../../../arm-elf/lib/thumb/interwork/libm.a(e_sqrt.o)
                                                  /home/GNUARM/bin/../lib/gcc/arm-elf/4.0.2/../../../../arm-elf/lib/thumb/interwork/libm.a(e_rem_pio2.o)
                                                  /home/GNUARM/bin/../lib/gcc/arm-elf/4.0.2/../../../../arm-elf/lib/thumb/interwork/libm.a(s_sin.o)
                                                  /home/GNUARM/bin/../lib/gcc/arm-elf/4.0.2/../../../../arm-elf/lib/thumb/interwork/libm.a(s_cos.o)
                                                  build/TechBezierTrace.o
                                                  build/Technic.o
                                                  build/PositionEstimation.o
                                                  build/Navigator.o
__subsf3                                          /home/GNUARM/bin/../lib/gcc/arm-elf/4.0.2/thumb/interwork/libgcc.a(_addsubsf3.o)
                                                  /home/nxtOSEK/ecrobot/../ecrobot/libnxtway_gs_balancer.a(balancer.o)
                                                  build/PIDController.o
                                                  build/TechBezierTrace.o
                                                  build/Vec.o
                                                  build/MarkerCheck.o
__system_stack__                                  build/config/at91sam7s-gnu/cpu_support.oram
                                                  build/ecrobot_init.o
__truncdfsf2                                      /home/GNUARM/bin/../lib/gcc/arm-elf/4.0.2/thumb/interwork/libgcc.a(_truncdfsf2.o)
                                                  build/TechBezierTrace.o
                                                  build/Vec.o
                                                  build/Technic.o
                                                  build/MarkerCheck.o
                                                  build/Navigator.o
                                                  build/Robot.o
__udivsi3                                         /home/GNUARM/bin/../lib/gcc/arm-elf/4.0.2/thumb/interwork/libgcc.a(_udivsi3.o)
                                                  /home/GNUARM/bin/../lib/gcc/arm-elf/4.0.2/thumb/interwork/libgcc.a(_divdi3.o)
                                                  /home/nxtOSEK/ecrobot/../ecrobot/libecrobot.a(sound.oram)
                                                  /home/nxtOSEK/ecrobot/../ecrobot/libecrobot.a(display.oram)
                                                  /home/nxtOSEK/ecrobot/../ecrobot/libecrobot.a(ecrobot_interface.o)
                                                  build/Robot.o
                                                  build/ecrobot_base.o
__umodsi3                                         /home/GNUARM/bin/../lib/gcc/arm-elf/4.0.2/thumb/interwork/libgcc.a(_umodsi3.o)
                                                  /home/GNUARM/bin/../lib/gcc/arm-elf/4.0.2/thumb/interwork/libgcc.a(_divdi3.o)
                                                  /home/nxtOSEK/ecrobot/../ecrobot/libecrobot.a(display.oram)
__vectors_load_end__                              build/ecrobot_init.o
__vectors_load_start__                            build/ecrobot_init.o
__vectors_ram_start__                             build/ecrobot_init.o
_errorhook_par1                                   build/kernel/task_manage.o
                                                  build/kernel/resource.o
                                                  build/kernel/osctl.o
                                                  build/kernel/event.o
                                                  build/kernel/alarm.o
_errorhook_par2                                   build/kernel/task_manage.o
                                                  build/kernel/osctl.o
                                                  build/kernel/event.o
                                                  build/kernel/alarm.o
_errorhook_par3                                   build/kernel/osctl.o
                                                  build/kernel/alarm.o
_errorhook_svcid                                  build/kernel/osctl.o
_free_r                                           /home/GNUARM/bin/../lib/gcc/arm-elf/4.0.2/../../../../arm-elf/lib/thumb/interwork/libc.a(freer.o)
                                                  /home/GNUARM/bin/../lib/gcc/arm-elf/4.0.2/../../../../arm-elf/lib/thumb/interwork/libc.a(mallocr.o)
                                                  /home/GNUARM/bin/../lib/gcc/arm-elf/4.0.2/../../../../arm-elf/lib/thumb/interwork/libc.a(malloc.o)
_global_impure_ptr                                /home/GNUARM/bin/../lib/gcc/arm-elf/4.0.2/../../../../arm-elf/lib/thumb/interwork/libc.a(impure.o)
_impure_ptr                                       /home/GNUARM/bin/../lib/gcc/arm-elf/4.0.2/../../../../arm-elf/lib/thumb/interwork/libc.a(impure.o)
                                                  /home/GNUARM/bin/../lib/gcc/arm-elf/4.0.2/../../../../arm-elf/lib/thumb/interwork/libc.a(malloc.o)
                                                  /home/GNUARM/bin/../lib/gcc/arm-elf/4.0.2/../../../../arm-elf/lib/thumb/interwork/libc.a(errno.o)
_interrupt                                        build/config/at91sam7s-gnu/cpu_support.oram
                                                  build/config/at91sam7s-gnu/irq.oram
_malloc_r                                         /home/GNUARM/bin/../lib/gcc/arm-elf/4.0.2/../../../../arm-elf/lib/thumb/interwork/libc.a(mallocr.o)
                                                  /home/GNUARM/bin/../lib/gcc/arm-elf/4.0.2/../../../../arm-elf/lib/thumb/interwork/libc.a(malloc.o)
_malloc_trim_r                                    /home/GNUARM/bin/../lib/gcc/arm-elf/4.0.2/../../../../arm-elf/lib/thumb/interwork/libc.a(freer.o)
_sbrk_r                                           build/syscalls.o
                                                  /home/GNUARM/bin/../lib/gcc/arm-elf/4.0.2/../../../../arm-elf/lib/thumb/interwork/libc.a(freer.o)
                                                  /home/GNUARM/bin/../lib/gcc/arm-elf/4.0.2/../../../../arm-elf/lib/thumb/interwork/libc.a(mallocr.o)
activate_r                                        build/config/at91sam7s-gnu/cpu_support.oram
                                                  build/kernel/task.o
add_status_info                                   build/ecrobot_base.o
                                                  build/ecrobot.o
                                                  build/ecrobot_bluetooth.o
aic_clear                                         /home/nxtOSEK/ecrobot/../ecrobot/libecrobot.a(aic.oram)
                                                  /home/nxtOSEK/ecrobot/../ecrobot/libecrobot.a(bt.oram)
                                                  /home/nxtOSEK/ecrobot/../ecrobot/libecrobot.a(sound.oram)
aic_initialise                                    /home/nxtOSEK/ecrobot/../ecrobot/libecrobot.a(aic.oram)
                                                  /home/nxtOSEK/ecrobot/../ecrobot/libecrobot.a(flash_loader.oram)
aic_mask_off                                      /home/nxtOSEK/ecrobot/../ecrobot/libecrobot.a(aic.oram)
                                                  /home/nxtOSEK/ecrobot/../ecrobot/libecrobot.a(bt.oram)
                                                  /home/nxtOSEK/ecrobot/../ecrobot/libecrobot.a(i2c.oram)
                                                  /home/nxtOSEK/ecrobot/../ecrobot/libecrobot.a(nxt_motors.oram)
                                                  /home/nxtOSEK/ecrobot/../ecrobot/libecrobot.a(nxt_spi.oram)
                                                  /home/nxtOSEK/ecrobot/../ecrobot/libecrobot.a(twi.oram)
                                                  /home/nxtOSEK/ecrobot/../ecrobot/libecrobot.a(udp.oram)
                                                  /home/nxtOSEK/ecrobot/../ecrobot/libecrobot.a(systick.oram)
                                                  /home/nxtOSEK/ecrobot/../ecrobot/libecrobot.a(uart.oram)
aic_mask_on                                       /home/nxtOSEK/ecrobot/../ecrobot/libecrobot.a(aic.oram)
                                                  /home/nxtOSEK/ecrobot/../ecrobot/libecrobot.a(sound.oram)
                                                  /home/nxtOSEK/ecrobot/../ecrobot/libecrobot.a(i2c.oram)
                                                  /home/nxtOSEK/ecrobot/../ecrobot/libecrobot.a(nxt_motors.oram)
                                                  /home/nxtOSEK/ecrobot/../ecrobot/libecrobot.a(nxt_spi.oram)
                                                  /home/nxtOSEK/ecrobot/../ecrobot/libecrobot.a(twi.oram)
                                                  /home/nxtOSEK/ecrobot/../ecrobot/libecrobot.a(udp.oram)
                                                  /home/nxtOSEK/ecrobot/../ecrobot/libecrobot.a(systick.oram)
                                                  /home/nxtOSEK/ecrobot/../ecrobot/libecrobot.a(uart.oram)
aic_set_vector                                    /home/nxtOSEK/ecrobot/../ecrobot/libecrobot.a(aic.oram)
                                                  /home/nxtOSEK/ecrobot/../ecrobot/libecrobot.a(sound.oram)
                                                  /home/nxtOSEK/ecrobot/../ecrobot/libecrobot.a(i2c.oram)
                                                  /home/nxtOSEK/ecrobot/../ecrobot/libecrobot.a(nxt_motors.oram)
                                                  /home/nxtOSEK/ecrobot/../ecrobot/libecrobot.a(nxt_spi.oram)
                                                  /home/nxtOSEK/ecrobot/../ecrobot/libecrobot.a(twi.oram)
                                                  /home/nxtOSEK/ecrobot/../ecrobot/libecrobot.a(udp.oram)
                                                  /home/nxtOSEK/ecrobot/../ecrobot/libecrobot.a(systick.oram)
                                                  /home/nxtOSEK/ecrobot/../ecrobot/libecrobot.a(uart.oram)
alarm_initialize                                  build/kernel/alarm.o
                                                  build/./kernel_cfg.o
almcb_almval                                      build/./kernel_cfg.o
                                                  build/kernel/alarm.o
almcb_cycle                                       build/./kernel_cfg.o
                                                  build/kernel/alarm.o
almcb_next                                        build/./kernel_cfg.o
                                                  build/kernel/alarm.o
almcb_prev                                        build/./kernel_cfg.o
                                                  build/kernel/alarm.o
alminib_almval                                    build/./kernel_cfg.o
                                                  build/kernel/alarm.o
alminib_autosta                                   build/./kernel_cfg.o
                                                  build/kernel/alarm.o
alminib_cback                                     build/./kernel_cfg.o
                                                  build/kernel/alarm.o
alminib_cntid                                     build/./kernel_cfg.o
                                                  build/kernel/alarm.o
alminib_cycle                                     build/./kernel_cfg.o
                                                  build/kernel/alarm.o
appmode                                           build/kernel/task.o
                                                  build/kernel/osctl.o
                                                  build/kernel/alarm.o
avr_brainwash_string                              /home/nxtOSEK/ecrobot/../ecrobot/libecrobot.a(nxt_avr.oram)
balance_control                                   /home/nxtOSEK/ecrobot/../ecrobot/libnxtway_gs_balancer.a(balancer.o)
                                                  build/Robot.o
balance_init                                      /home/nxtOSEK/ecrobot/../ecrobot/libnxtway_gs_balancer.a(balancer.o)
                                                  build/Robot.o
battery_voltage                                   /home/nxtOSEK/ecrobot/../ecrobot/libecrobot.a(nxt_avr.oram)
                                                  /home/nxtOSEK/ecrobot/../ecrobot/libecrobot.a(ecrobot_interface.o)
bt                                                build/Robot.o
bt_clear_arm7_cmd                                 /home/nxtOSEK/ecrobot/../ecrobot/libecrobot.a(bt.oram)
                                                  build/ecrobot_bluetooth.o
bt_get_mode                                       /home/nxtOSEK/ecrobot/../ecrobot/libecrobot.a(bt.oram)
bt_init                                           /home/nxtOSEK/ecrobot/../ecrobot/libecrobot.a(bt.oram)
                                                  /home/nxtOSEK/ecrobot/../ecrobot/libecrobot.a(flash_loader.oram)
bt_pending                                        /home/nxtOSEK/ecrobot/../ecrobot/libecrobot.a(bt.oram)
                                                  build/ecrobot_bluetooth.o
bt_read                                           /home/nxtOSEK/ecrobot/../ecrobot/libecrobot.a(bt.oram)
                                                  build/ecrobot_bluetooth.o
bt_receive                                        /home/nxtOSEK/ecrobot/../ecrobot/libecrobot.a(bt.oram)
                                                  build/ecrobot_bluetooth.o
bt_reset                                          /home/nxtOSEK/ecrobot/../ecrobot/libecrobot.a(bt.oram)
                                                  build/ecrobot_bluetooth.o
bt_send                                           /home/nxtOSEK/ecrobot/../ecrobot/libecrobot.a(bt.oram)
                                                  build/ecrobot_bluetooth.o
bt_set_arm7_cmd                                   /home/nxtOSEK/ecrobot/../ecrobot/libecrobot.a(bt.oram)
                                                  build/ecrobot_bluetooth.o
bt_set_reset_high                                 /home/nxtOSEK/ecrobot/../ecrobot/libecrobot.a(bt.oram)
bt_set_reset_low                                  /home/nxtOSEK/ecrobot/../ecrobot/libecrobot.a(bt.oram)
bt_start_ad_converter                             /home/nxtOSEK/ecrobot/../ecrobot/libecrobot.a(bt.oram)
bt_write                                          /home/nxtOSEK/ecrobot/../ecrobot/libecrobot.a(bt.oram)
                                                  build/ecrobot_bluetooth.o
buttons_get                                       /home/nxtOSEK/ecrobot/../ecrobot/libecrobot.a(nxt_avr.oram)
                                                  /home/nxtOSEK/ecrobot/../ecrobot/libecrobot.a(flash_loader.oram)
                                                  /home/nxtOSEK/ecrobot/../ecrobot/libecrobot.a(sensors.oram)
                                                  /home/nxtOSEK/ecrobot/../ecrobot/libecrobot.a(ecrobot_interface.o)
byte_fifo_clear                                   /home/nxtOSEK/ecrobot/../ecrobot/libecrobot.a(byte_fifo.oram)
byte_fifo_get                                     /home/nxtOSEK/ecrobot/../ecrobot/libecrobot.a(byte_fifo.oram)
                                                  /home/nxtOSEK/ecrobot/../ecrobot/libecrobot.a(uart.oram)
byte_fifo_init                                    /home/nxtOSEK/ecrobot/../ecrobot/libecrobot.a(byte_fifo.oram)
                                                  /home/nxtOSEK/ecrobot/../ecrobot/libecrobot.a(uart.oram)
byte_fifo_put                                     /home/nxtOSEK/ecrobot/../ecrobot/libecrobot.a(byte_fifo.oram)
                                                  /home/nxtOSEK/ecrobot/../ecrobot/libecrobot.a(uart.oram)
call_errorhook                                    build/kernel/osctl.o
                                                  build/kernel/task_manage.o
                                                  build/kernel/resource.o
                                                  build/kernel/event.o
                                                  build/kernel/alarm.o
call_posttaskhook                                 build/kernel/osctl.o
                                                  build/config/at91sam7s-gnu/cpu_support.oram
call_pretaskhook                                  build/kernel/osctl.o
                                                  build/config/at91sam7s-gnu/cpu_support.oram
callevel                                          build/config/at91sam7s-gnu/cpu_support.oram
                                                  build/kernel/task_manage.o
                                                  build/kernel/resource.o
                                                  build/kernel/osctl.o
                                                  build/kernel/interrupt.o
                                                  build/kernel/event.o
                                                  build/kernel/alarm.o
check_NXT_buttons                                 build/ecrobot_base.o
                                                  build/syslib/at91sam7s-gnu/lego_nxt/hw_sys_timer.oram
check_for_data                                    /home/nxtOSEK/ecrobot/../ecrobot/libecrobot.a(sensors.oram)
clear_flash_request                               /home/nxtOSEK/ecrobot/../ecrobot/libecrobot.a(flash_loader.oram)
clock                                             build/utils.o
                                                  build/TechBezierTrace.o
                                                  build/Driver.o
cntcb_almque                                      build/./kernel_cfg.o
                                                  build/kernel/alarm.o
cntcb_curval                                      build/./kernel_cfg.o
                                                  build/kernel/alarm.o
cntinib_maxval                                    build/./kernel_cfg.o
                                                  build/kernel/alarm.o
cntinib_maxval2                                   build/./kernel_cfg.o
                                                  build/kernel/alarm.o
cntinib_mincyc                                    build/./kernel_cfg.o
                                                  build/kernel/alarm.o
cntinib_tickbase                                  build/./kernel_cfg.o
                                                  build/kernel/alarm.o
colorsensor_color_get                             /home/nxtOSEK/ecrobot/../ecrobot/libecrobot.a(colorsensor.o)
                                                  /home/nxtOSEK/ecrobot/../ecrobot/libecrobot.a(ecrobot_interface.o)
colorsensor_init                                  /home/nxtOSEK/ecrobot/../ecrobot/libecrobot.a(colorsensor.o)
                                                  /home/nxtOSEK/ecrobot/../ecrobot/libecrobot.a(ecrobot_interface.o)
colorsensor_light_full                            /home/nxtOSEK/ecrobot/../ecrobot/libecrobot.a(colorsensor.o)
                                                  /home/nxtOSEK/ecrobot/../ecrobot/libecrobot.a(ecrobot_interface.o)
colorsensor_light_get                             /home/nxtOSEK/ecrobot/../ecrobot/libecrobot.a(colorsensor.o)
                                                  /home/nxtOSEK/ecrobot/../ecrobot/libecrobot.a(ecrobot_interface.o)
colorsensor_rgb_get                               /home/nxtOSEK/ecrobot/../ecrobot/libecrobot.a(colorsensor.o)
                                                  /home/nxtOSEK/ecrobot/../ecrobot/libecrobot.a(ecrobot_interface.o)
colorsensor_term                                  /home/nxtOSEK/ecrobot/../ecrobot/libecrobot.a(colorsensor.o)
                                                  /home/nxtOSEK/ecrobot/../ecrobot/libecrobot.a(ecrobot_interface.o)
copysign                                          /home/GNUARM/bin/../lib/gcc/arm-elf/4.0.2/../../../../arm-elf/lib/thumb/interwork/libm.a(s_copysign.o)
                                                  /home/GNUARM/bin/../lib/gcc/arm-elf/4.0.2/../../../../arm-elf/lib/thumb/interwork/libm.a(s_scalbn.o)
cos                                               /home/GNUARM/bin/../lib/gcc/arm-elf/4.0.2/../../../../arm-elf/lib/thumb/interwork/libm.a(s_cos.o)
                                                  build/TechBezierTrace.o
                                                  build/PositionEstimation.o
                                                  build/Navigator.o
cpp_constructor                                   build/ecrobot_base.o
                                                  build/ecrobot.o
cpp_destructor                                    build/ecrobot_base.o
cpu_initialize                                    build/config/at91sam7s-gnu/cpu_config.o
                                                  build/kernel/osctl.o
cpu_terminate                                     build/config/at91sam7s-gnu/cpu_config.o
                                                  build/kernel/osctl.o
data                                              /home/nxtOSEK/ecrobot/../ecrobot/libecrobot.a(nxt_spi.oram)
data_abort_C                                      /home/nxtOSEK/ecrobot/../ecrobot/libecrobot.a(data_abort.oram)
                                                  build/ecrobot_init.o
data_abort_handler                                build/ecrobot_init.o
                                                  build/nxtvm/platform/nxt/vectors.o
                                                  build/nxtvm/platform/nxt/vectors.o
data_abort_pc                                     /home/nxtOSEK/ecrobot/../ecrobot/libecrobot.a(data_abort.oram)
                                                  build/ecrobot_init.o
debug1                                            build/config/at91sam7s-gnu/debug.o
debug2                                            build/config/at91sam7s-gnu/debug.o
default_fiq                                       build/config/at91sam7s-gnu/irq.oram
                                                  /home/nxtOSEK/ecrobot/../ecrobot/libecrobot.a(aic.oram)
default_isr                                       build/config/at91sam7s-gnu/irq.oram
                                                  /home/nxtOSEK/ecrobot/../ecrobot/libecrobot.a(aic.oram)
dirty                                             /home/nxtOSEK/ecrobot/../ecrobot/libecrobot.a(nxt_spi.oram)
disable_int                                       build/config/at91sam7s-gnu/cpu_support.oram
                                                  build/ecrobot.o
                                                  build/kernel/task_manage.o
                                                  build/kernel/resource.o
                                                  build/kernel/osctl.o
                                                  build/kernel/interrupt.o
                                                  build/kernel/event.o
                                                  build/kernel/alarm.o
dispatch                                          build/config/at91sam7s-gnu/cpu_support.oram
                                                  build/kernel/task_manage.o
                                                  build/kernel/resource.o
                                                  build/kernel/event.o
dispatch_r                                        build/config/at91sam7s-gnu/cpu_support.oram
display                                           /home/nxtOSEK/ecrobot/../ecrobot/libecrobot.a(nxt_spi.oram)
display_auto_update                               /home/nxtOSEK/ecrobot/../ecrobot/libecrobot.a(display.oram)
display_bios_status                               /home/nxtOSEK/ecrobot/../ecrobot/libecrobot.a(flash_loader.oram)
display_bitmap_copy                               /home/nxtOSEK/ecrobot/../ecrobot/libecrobot.a(display.oram)
                                                  /home/nxtOSEK/ecrobot/../ecrobot/libecrobot++.a(Lcd.o)
                                                  build/ecrobot_base.o
display_char                                      /home/nxtOSEK/ecrobot/../ecrobot/libecrobot.a(display.oram)
display_clear                                     /home/nxtOSEK/ecrobot/../ecrobot/libecrobot.a(display.oram)
                                                  /home/nxtOSEK/ecrobot/../ecrobot/libecrobot.a(flash_loader.oram)
                                                  /home/nxtOSEK/ecrobot/../ecrobot/libecrobot.a(data_abort.oram)
                                                  /home/nxtOSEK/ecrobot/../ecrobot/libecrobot.a(ecrobot_interface.o)
                                                  /home/nxtOSEK/ecrobot/../ecrobot/libecrobot++.a(Lcd.o)
                                                  build/ecrobot.o
                                                  build/ecrobot_base.o
                                                  build/rtoscalls.o
display_force_update                              /home/nxtOSEK/ecrobot/../ecrobot/libecrobot.a(display.oram)
                                                  /home/nxtOSEK/ecrobot/../ecrobot/libecrobot.a(data_abort.oram)
                                                  build/ecrobot_base.o
display_get_array                                 /home/nxtOSEK/ecrobot/../ecrobot/libecrobot.a(display.oram)
display_get_buffer                                /home/nxtOSEK/ecrobot/../ecrobot/libecrobot.a(display.oram)
display_goto_xy                                   /home/nxtOSEK/ecrobot/../ecrobot/libecrobot.a(display.oram)
                                                  /home/nxtOSEK/ecrobot/../ecrobot/libecrobot.a(data_abort.oram)
                                                  /home/nxtOSEK/ecrobot/../ecrobot/libecrobot.a(ecrobot_interface.o)
                                                  /home/nxtOSEK/ecrobot/../ecrobot/libecrobot++.a(Lcd.o)
                                                  build/ecrobot_base.o
                                                  build/rtoscalls.o
display_hex                                       /home/nxtOSEK/ecrobot/../ecrobot/libecrobot.a(display.oram)
                                                  /home/nxtOSEK/ecrobot/../ecrobot/libecrobot.a(data_abort.oram)
                                                  /home/nxtOSEK/ecrobot/../ecrobot/libecrobot++.a(Lcd.o)
                                                  build/ecrobot_base.o
display_init                                      /home/nxtOSEK/ecrobot/../ecrobot/libecrobot.a(display.oram)
                                                  /home/nxtOSEK/ecrobot/../ecrobot/libecrobot.a(flash_loader.oram)
display_int                                       /home/nxtOSEK/ecrobot/../ecrobot/libecrobot.a(display.oram)
                                                  /home/nxtOSEK/ecrobot/../ecrobot/libecrobot.a(ecrobot_interface.o)
                                                  /home/nxtOSEK/ecrobot/../ecrobot/libecrobot++.a(Lcd.o)
display_set_auto_update                           /home/nxtOSEK/ecrobot/../ecrobot/libecrobot.a(display.oram)
display_status_bar                                build/ecrobot_base.o
                                                  build/ecrobot.o
display_string                                    /home/nxtOSEK/ecrobot/../ecrobot/libecrobot.a(display.oram)
                                                  /home/nxtOSEK/ecrobot/../ecrobot/libecrobot.a(data_abort.oram)
                                                  /home/nxtOSEK/ecrobot/../ecrobot/libecrobot.a(ecrobot_interface.o)
                                                  /home/nxtOSEK/ecrobot/../ecrobot/libecrobot++.a(Lcd.o)
                                                  build/ecrobot_base.o
                                                  build/rtoscalls.o
display_test                                      /home/nxtOSEK/ecrobot/../ecrobot/libecrobot.a(display.oram)
display_tick                                      /home/nxtOSEK/ecrobot/../ecrobot/libecrobot.a(display.oram)
display_unsigned                                  /home/nxtOSEK/ecrobot/../ecrobot/libecrobot.a(display.oram)
                                                  /home/nxtOSEK/ecrobot/../ecrobot/libecrobot.a(ecrobot_interface.o)
                                                  build/ecrobot_base.o
display_update                                    /home/nxtOSEK/ecrobot/../ecrobot/libecrobot.a(display.oram)
                                                  /home/nxtOSEK/ecrobot/../ecrobot/libecrobot.a(ecrobot_interface.o)
                                                  /home/nxtOSEK/ecrobot/../ecrobot/libecrobot++.a(Lcd.o)
                                                  build/ecrobot_base.o
                                                  build/rtoscalls.o
display_x                                         /home/nxtOSEK/ecrobot/../ecrobot/libecrobot.a(display.oram)
display_y                                         /home/nxtOSEK/ecrobot/../ecrobot/libecrobot.a(display.oram)
ecrobot::BTConnection::connect(char const*, char const*) /home/nxtOSEK/ecrobot/../ecrobot/libecrobot++.a(BTConnection.o)
                                                  build/Robot.o
ecrobot::BTConnection::connect(char const*, unsigned char const*) /home/nxtOSEK/ecrobot/../ecrobot/libecrobot++.a(BTConnection.o)
ecrobot::Bluetooth::Bluetooth()                   /home/nxtOSEK/ecrobot/../ecrobot/libecrobot++.a(Bluetooth.o)
ecrobot::Bluetooth::Bluetooth()                   /home/nxtOSEK/ecrobot/../ecrobot/libecrobot++.a(Bluetooth.o)
                                                  build/Robot.o
ecrobot::Bluetooth::cancelWaitForConnection()     /home/nxtOSEK/ecrobot/../ecrobot/libecrobot++.a(Bluetooth.o)
                                                  /home/nxtOSEK/ecrobot/../ecrobot/libecrobot++.a(BTConnection.o)
ecrobot::Bluetooth::close()                       /home/nxtOSEK/ecrobot/../ecrobot/libecrobot++.a(Bluetooth.o)
ecrobot::Bluetooth::getDeviceAddress(unsigned char*) const /home/nxtOSEK/ecrobot/../ecrobot/libecrobot++.a(Bluetooth.o)
                                                  /home/nxtOSEK/ecrobot/../ecrobot/libecrobot++.a(BTConnection.o)
ecrobot::Bluetooth::getFriendlyName(char*) const  /home/nxtOSEK/ecrobot/../ecrobot/libecrobot++.a(Bluetooth.o)
                                                  /home/nxtOSEK/ecrobot/../ecrobot/libecrobot++.a(BTConnection.o)
ecrobot::Bluetooth::getRSSI()                     /home/nxtOSEK/ecrobot/../ecrobot/libecrobot++.a(Bluetooth.o)
ecrobot::Bluetooth::isConnected() const           /home/nxtOSEK/ecrobot/../ecrobot/libecrobot++.a(Bluetooth.o)
                                                  /home/nxtOSEK/ecrobot/../ecrobot/libecrobot++.a(Daq.o)
ecrobot::Bluetooth::receive(unsigned char*, unsigned long) const /home/nxtOSEK/ecrobot/../ecrobot/libecrobot++.a(Bluetooth.o)
ecrobot::Bluetooth::receive(void*, unsigned long, unsigned long) const /home/nxtOSEK/ecrobot/../ecrobot/libecrobot++.a(Bluetooth.o)
                                                  build/Robot.o
ecrobot::Bluetooth::send(unsigned char*, unsigned long) /home/nxtOSEK/ecrobot/../ecrobot/libecrobot++.a(Bluetooth.o)
                                                  /home/nxtOSEK/ecrobot/../ecrobot/libecrobot++.a(Daq.o)
ecrobot::Bluetooth::send(void const*, unsigned long, unsigned long) /home/nxtOSEK/ecrobot/../ecrobot/libecrobot++.a(Bluetooth.o)
ecrobot::Bluetooth::setFactorySettings()          /home/nxtOSEK/ecrobot/../ecrobot/libecrobot++.a(Bluetooth.o)
ecrobot::Bluetooth::setFriendlyName(char const*)  /home/nxtOSEK/ecrobot/../ecrobot/libecrobot++.a(Bluetooth.o)
                                                  /home/nxtOSEK/ecrobot/../ecrobot/libecrobot++.a(BTConnection.o)
ecrobot::Bluetooth::waitForConnection(char const*, unsigned char const*, unsigned long) /home/nxtOSEK/ecrobot/../ecrobot/libecrobot++.a(Bluetooth.o)
                                                  /home/nxtOSEK/ecrobot/../ecrobot/libecrobot++.a(BTConnection.o)
ecrobot::Bluetooth::waitForConnection(char const*, unsigned long) /home/nxtOSEK/ecrobot/../ecrobot/libecrobot++.a(Bluetooth.o)
                                                  /home/nxtOSEK/ecrobot/../ecrobot/libecrobot++.a(BTConnection.o)
ecrobot::Bluetooth::~Bluetooth()                  /home/nxtOSEK/ecrobot/../ecrobot/libecrobot++.a(Bluetooth.o)
ecrobot::Bluetooth::~Bluetooth()                  /home/nxtOSEK/ecrobot/../ecrobot/libecrobot++.a(Bluetooth.o)
                                                  build/Robot.o
ecrobot::Clock::Clock()                           /home/nxtOSEK/ecrobot/../ecrobot/libecrobot++.a(Clock.o)
                                                  build/utils.o
ecrobot::Clock::Clock()                           /home/nxtOSEK/ecrobot/../ecrobot/libecrobot++.a(Clock.o)
ecrobot::Clock::now() const                       /home/nxtOSEK/ecrobot/../ecrobot/libecrobot++.a(Clock.o)
                                                  build/TechBezierTrace.o
                                                  build/Driver.o
ecrobot::Clock::reset()                           /home/nxtOSEK/ecrobot/../ecrobot/libecrobot++.a(Clock.o)
ecrobot::Clock::sleep(unsigned long)              /home/nxtOSEK/ecrobot/../ecrobot/libecrobot++.a(Clock.o)
                                                  build/utils.o
ecrobot::Clock::wait(unsigned long)               /home/nxtOSEK/ecrobot/../ecrobot/libecrobot++.a(Clock.o)
ecrobot::Daq::Daq(ecrobot::Bluetooth&)            /home/nxtOSEK/ecrobot/../ecrobot/libecrobot++.a(Daq.o)
                                                  build/Robot.o
ecrobot::Daq::Daq(ecrobot::Bluetooth&)            /home/nxtOSEK/ecrobot/../ecrobot/libecrobot++.a(Daq.o)
ecrobot::Daq::send(signed char*, long)            /home/nxtOSEK/ecrobot/../ecrobot/libecrobot++.a(Daq.o)
ecrobot::Daq::send(signed char*, unsigned short, short*, long*) /home/nxtOSEK/ecrobot/../ecrobot/libecrobot++.a(Daq.o)
                                                  build/Robot.o
ecrobot::GyroSensor::GyroSensor(ePortS)           /home/nxtOSEK/ecrobot/../ecrobot/libecrobot++.a(GyroSensor.o)
                                                  build/Robot.o
ecrobot::GyroSensor::GyroSensor(ePortS)           /home/nxtOSEK/ecrobot/../ecrobot/libecrobot++.a(GyroSensor.o)
ecrobot::GyroSensor::getAnglerVelocity() const    /home/nxtOSEK/ecrobot/../ecrobot/libecrobot++.a(GyroSensor.o)
ecrobot::GyroSensor::setOffset(short)             /home/nxtOSEK/ecrobot/../ecrobot/libecrobot++.a(GyroSensor.o)
ecrobot::GyroSensor::~GyroSensor()                build/Robot.o
                                                  /home/nxtOSEK/ecrobot/../ecrobot/libecrobot++.a(GyroSensor.o)
ecrobot::GyroSensor::~GyroSensor()                build/Robot.o
                                                  /home/nxtOSEK/ecrobot/../ecrobot/libecrobot++.a(GyroSensor.o)
ecrobot::I2c::I2c(ePortS, ePower)                 /home/nxtOSEK/ecrobot/../ecrobot/libecrobot++.a(I2c.o)
ecrobot::I2c::I2c(ePortS, ePower)                 /home/nxtOSEK/ecrobot/../ecrobot/libecrobot++.a(I2c.o)
                                                  /home/nxtOSEK/ecrobot/../ecrobot/libecrobot++.a(SonarSensor.o)
ecrobot::I2c::receive(unsigned long, unsigned char*, unsigned long) const /home/nxtOSEK/ecrobot/../ecrobot/libecrobot++.a(I2c.o)
                                                  /home/nxtOSEK/ecrobot/../ecrobot/libecrobot++.a(SonarSensor.o)
ecrobot::I2c::send(unsigned long, unsigned char*, unsigned long) /home/nxtOSEK/ecrobot/../ecrobot/libecrobot++.a(I2c.o)
ecrobot::I2c::~I2c()                              /home/nxtOSEK/ecrobot/../ecrobot/libecrobot++.a(I2c.o)
ecrobot::I2c::~I2c()                              /home/nxtOSEK/ecrobot/../ecrobot/libecrobot++.a(I2c.o)
ecrobot::I2c::~I2c()                              /home/nxtOSEK/ecrobot/../ecrobot/libecrobot++.a(I2c.o)
                                                  /home/nxtOSEK/ecrobot/../ecrobot/libecrobot++.a(SonarSensor.o)
                                                  build/Robot.o
ecrobot::Lcd::Lcd()                               /home/nxtOSEK/ecrobot/../ecrobot/libecrobot++.a(Lcd.o)
ecrobot::Lcd::Lcd()                               /home/nxtOSEK/ecrobot/../ecrobot/libecrobot++.a(Lcd.o)
                                                  build/Robot.o
ecrobot::Lcd::clear(bool)                         /home/nxtOSEK/ecrobot/../ecrobot/libecrobot++.a(Lcd.o)
                                                  /home/nxtOSEK/ecrobot/../ecrobot/libecrobot++.a(BTConnection.o)
                                                  build/PositionEstimation.o
                                                  build/Driver.o
ecrobot::Lcd::clearRow(unsigned long, bool)       /home/nxtOSEK/ecrobot/../ecrobot/libecrobot++.a(Lcd.o)
ecrobot::Lcd::cursor(unsigned long, unsigned long) /home/nxtOSEK/ecrobot/../ecrobot/libecrobot++.a(Lcd.o)
                                                  /home/nxtOSEK/ecrobot/../ecrobot/libecrobot++.a(BTConnection.o)
                                                  build/Driver.o
                                                  build/Robot.o
ecrobot::Lcd::disp()                              /home/nxtOSEK/ecrobot/../ecrobot/libecrobot++.a(Lcd.o)
                                                  /home/nxtOSEK/ecrobot/../ecrobot/libecrobot++.a(BTConnection.o)
                                                  build/PositionEstimation.o
                                                  build/Driver.o
                                                  build/Robot.o
ecrobot::Lcd::draw(unsigned char const*, unsigned long, unsigned long, unsigned long, unsigned long) /home/nxtOSEK/ecrobot/../ecrobot/libecrobot++.a(Lcd.o)
ecrobot::Lcd::putf(char const*, ...)              /home/nxtOSEK/ecrobot/../ecrobot/libecrobot++.a(Lcd.o)
                                                  /home/nxtOSEK/ecrobot/../ecrobot/libecrobot++.a(BTConnection.o)
                                                  build/PositionEstimation.o
                                                  build/Driver.o
                                                  build/Robot.o
ecrobot::LightSensor::LightSensor(ePortS, bool)   /home/nxtOSEK/ecrobot/../ecrobot/libecrobot++.a(LightSensor.o)
ecrobot::LightSensor::LightSensor(ePortS, bool)   /home/nxtOSEK/ecrobot/../ecrobot/libecrobot++.a(LightSensor.o)
                                                  build/Robot.o
ecrobot::LightSensor::getBrightness() const       /home/nxtOSEK/ecrobot/../ecrobot/libecrobot++.a(LightSensor.o)
ecrobot::LightSensor::setLamp(bool)               /home/nxtOSEK/ecrobot/../ecrobot/libecrobot++.a(LightSensor.o)
ecrobot::LightSensor::~LightSensor()              /home/nxtOSEK/ecrobot/../ecrobot/libecrobot++.a(LightSensor.o)
ecrobot::LightSensor::~LightSensor()              /home/nxtOSEK/ecrobot/../ecrobot/libecrobot++.a(LightSensor.o)
                                                  build/Robot.o
ecrobot::LightSensor::~LightSensor()              /home/nxtOSEK/ecrobot/../ecrobot/libecrobot++.a(LightSensor.o)
ecrobot::Motor::Motor(ePortM, bool)               /home/nxtOSEK/ecrobot/../ecrobot/libecrobot++.a(Motor.o)
                                                  build/Robot.o
ecrobot::Motor::Motor(ePortM, bool)               /home/nxtOSEK/ecrobot/../ecrobot/libecrobot++.a(Motor.o)
ecrobot::Motor::setBrake(bool)                    /home/nxtOSEK/ecrobot/../ecrobot/libecrobot++.a(Motor.o)
ecrobot::Motor::setPWM(signed char)               /home/nxtOSEK/ecrobot/../ecrobot/libecrobot++.a(Motor.o)
                                                  build/Robot.o
ecrobot::Motor::~Motor()                          /home/nxtOSEK/ecrobot/../ecrobot/libecrobot++.a(Motor.o)
ecrobot::Motor::~Motor()                          /home/nxtOSEK/ecrobot/../ecrobot/libecrobot++.a(Motor.o)
                                                  build/Robot.o
ecrobot::Nxt::Nxt()                               /home/nxtOSEK/ecrobot/../ecrobot/libecrobot++.a(Nxt.o)
ecrobot::Nxt::Nxt()                               /home/nxtOSEK/ecrobot/../ecrobot/libecrobot++.a(Nxt.o)
                                                  build/Robot.o
ecrobot::Nxt::execNXTBIOS()                       /home/nxtOSEK/ecrobot/../ecrobot/libecrobot++.a(Nxt.o)
ecrobot::Nxt::getBattMv() const                   /home/nxtOSEK/ecrobot/../ecrobot/libecrobot++.a(Nxt.o)
                                                  build/Robot.o
ecrobot::Nxt::getButtons() const                  /home/nxtOSEK/ecrobot/../ecrobot/libecrobot++.a(Nxt.o)
                                                  /home/nxtOSEK/ecrobot/../ecrobot/libecrobot++.a(BTConnection.o)
ecrobot::Nxt::getNxtButtons() const               /home/nxtOSEK/ecrobot/../ecrobot/libecrobot++.a(Nxt.o)
ecrobot::Nxt::restart()                           /home/nxtOSEK/ecrobot/../ecrobot/libecrobot++.a(Nxt.o)
ecrobot::Nxt::shutdown()                          /home/nxtOSEK/ecrobot/../ecrobot/libecrobot++.a(Nxt.o)
ecrobot::Sensor::~Sensor()                        build/Robot.o
                                                  /home/nxtOSEK/ecrobot/../ecrobot/libecrobot++.a(TouchSensor.o)
                                                  /home/nxtOSEK/ecrobot/../ecrobot/libecrobot++.a(LightSensor.o)
                                                  /home/nxtOSEK/ecrobot/../ecrobot/libecrobot++.a(GyroSensor.o)
ecrobot::Sensor::~Sensor()                        build/Robot.o
                                                  /home/nxtOSEK/ecrobot/../ecrobot/libecrobot++.a(TouchSensor.o)
                                                  /home/nxtOSEK/ecrobot/../ecrobot/libecrobot++.a(LightSensor.o)
                                                  /home/nxtOSEK/ecrobot/../ecrobot/libecrobot++.a(GyroSensor.o)
ecrobot::SonarSensor::SonarSensor(ePortS)         /home/nxtOSEK/ecrobot/../ecrobot/libecrobot++.a(SonarSensor.o)
                                                  build/Robot.o
ecrobot::SonarSensor::SonarSensor(ePortS)         /home/nxtOSEK/ecrobot/../ecrobot/libecrobot++.a(SonarSensor.o)
ecrobot::SonarSensor::getDistance() const         /home/nxtOSEK/ecrobot/../ecrobot/libecrobot++.a(SonarSensor.o)
                                                  build/Robot.o
ecrobot::SonarSensor::~SonarSensor()              build/Robot.o
                                                  /home/nxtOSEK/ecrobot/../ecrobot/libecrobot++.a(SonarSensor.o)
ecrobot::SonarSensor::~SonarSensor()              build/Robot.o
                                                  /home/nxtOSEK/ecrobot/../ecrobot/libecrobot++.a(SonarSensor.o)
ecrobot::Speaker::Speaker()                       /home/nxtOSEK/ecrobot/../ecrobot/libecrobot++.a(Speaker.o)
                                                  build/Robot.o
ecrobot::Speaker::Speaker()                       /home/nxtOSEK/ecrobot/../ecrobot/libecrobot++.a(Speaker.o)
ecrobot::Speaker::playTone(unsigned long, unsigned long, unsigned long) /home/nxtOSEK/ecrobot/../ecrobot/libecrobot++.a(Speaker.o)
                                                  build/Technic.o
                                                  build/Driver.o
ecrobot::Speaker::playWav(char const*, unsigned long, unsigned long) /home/nxtOSEK/ecrobot/../ecrobot/libecrobot++.a(Speaker.o)
ecrobot::TouchSensor::TouchSensor(ePortS)         /home/nxtOSEK/ecrobot/../ecrobot/libecrobot++.a(TouchSensor.o)
                                                  build/Robot.o
ecrobot::TouchSensor::TouchSensor(ePortS)         /home/nxtOSEK/ecrobot/../ecrobot/libecrobot++.a(TouchSensor.o)
ecrobot::TouchSensor::isPressed() const           /home/nxtOSEK/ecrobot/../ecrobot/libecrobot++.a(TouchSensor.o)
                                                  build/Robot.o
ecrobot::TouchSensor::~TouchSensor()              build/Robot.o
                                                  /home/nxtOSEK/ecrobot/../ecrobot/libecrobot++.a(TouchSensor.o)
ecrobot::TouchSensor::~TouchSensor()              build/Robot.o
                                                  /home/nxtOSEK/ecrobot/../ecrobot/libecrobot++.a(TouchSensor.o)
ecrobot_adc_data_monitor                          /home/nxtOSEK/ecrobot/../ecrobot/libecrobot.a(ecrobot_interface.o)
ecrobot_bmp2lcd                                   /home/nxtOSEK/ecrobot/../ecrobot/libecrobot.a(ecrobot_interface.o)
                                                  build/ecrobot_base.o
ecrobot_bt_adc_data_logger                        /home/nxtOSEK/ecrobot/../ecrobot/libecrobot.a(ecrobot_interface.o)
ecrobot_bt_data_logger                            /home/nxtOSEK/ecrobot/../ecrobot/libecrobot.a(ecrobot_interface.o)
ecrobot_debug                                     /home/nxtOSEK/ecrobot/../ecrobot/libecrobot.a(ecrobot_interface.o)
ecrobot_debug1                                    /home/nxtOSEK/ecrobot/../ecrobot/libecrobot.a(ecrobot_interface.o)
                                                  build/config/at91sam7s-gnu/debug.o
ecrobot_debug2                                    /home/nxtOSEK/ecrobot/../ecrobot/libecrobot.a(ecrobot_interface.o)
                                                  build/config/at91sam7s-gnu/debug.o
ecrobot_device_initialize                         /home/nxtOSEK/ecrobot/../ecrobot/libecrobot.a(ecrobot_device_hook.o)
                                                  build/ecrobot.o
ecrobot_device_terminate                          /home/nxtOSEK/ecrobot/../ecrobot/libecrobot.a(ecrobot_device_hook.o)
                                                  build/ecrobot.o
                                                  build/ecrobot_base.o
ecrobot_disconnect_usb                            /home/nxtOSEK/ecrobot/../ecrobot/libecrobot.a(ecrobot_usb.o)
ecrobot_exec_NXT_BIOS                             /home/nxtOSEK/ecrobot/../ecrobot/libecrobot.a(ecrobot_interface.o)
                                                  /home/nxtOSEK/ecrobot/../ecrobot/libecrobot++.a(Nxt.o)
ecrobot_get_RCX_sensor                            /home/nxtOSEK/ecrobot/../ecrobot/libecrobot.a(ecrobot_interface.o)
ecrobot_get_RCX_touch_sensor                      /home/nxtOSEK/ecrobot/../ecrobot/libecrobot.a(ecrobot_interface.o)
ecrobot_get_battery_voltage                       /home/nxtOSEK/ecrobot/../ecrobot/libecrobot.a(ecrobot_interface.o)
                                                  /home/nxtOSEK/ecrobot/../ecrobot/libecrobot++.a(Daq.o)
                                                  /home/nxtOSEK/ecrobot/../ecrobot/libecrobot++.a(Nxt.o)
                                                  build/ecrobot_base.o
ecrobot_get_bt_device_address                     build/ecrobot_bluetooth.o
                                                  /home/nxtOSEK/ecrobot/../ecrobot/libecrobot++.a(Bluetooth.o)
ecrobot_get_bt_device_name                        build/ecrobot_bluetooth.o
                                                  /home/nxtOSEK/ecrobot/../ecrobot/libecrobot++.a(Bluetooth.o)
ecrobot_get_bt_signal_strength                    build/ecrobot_bluetooth.o
                                                  /home/nxtOSEK/ecrobot/../ecrobot/libecrobot++.a(Bluetooth.o)
ecrobot_get_bt_status                             build/ecrobot_bluetooth.o
                                                  /home/nxtOSEK/ecrobot/../ecrobot/libecrobot.a(ecrobot_interface.o)
                                                  /home/nxtOSEK/ecrobot/../ecrobot/libecrobot++.a(Bluetooth.o)
ecrobot_get_button_state                          /home/nxtOSEK/ecrobot/../ecrobot/libecrobot.a(ecrobot_interface.o)
                                                  /home/nxtOSEK/ecrobot/../ecrobot/libecrobot++.a(Nxt.o)
                                                  build/ecrobot.o
                                                  build/ecrobot_base.o
ecrobot_get_light_sensor                          /home/nxtOSEK/ecrobot/../ecrobot/libecrobot.a(ecrobot_interface.o)
ecrobot_get_motor_rev                             /home/nxtOSEK/ecrobot/../ecrobot/libecrobot.a(ecrobot_interface.o)
ecrobot_get_nxtcolorsensor_id                     /home/nxtOSEK/ecrobot/../ecrobot/libecrobot.a(ecrobot_interface.o)
ecrobot_get_nxtcolorsensor_light                  /home/nxtOSEK/ecrobot/../ecrobot/libecrobot.a(ecrobot_interface.o)
ecrobot_get_nxtcolorsensor_mode                   /home/nxtOSEK/ecrobot/../ecrobot/libecrobot.a(ecrobot_interface.o)
ecrobot_get_nxtcolorsensor_rgb                    /home/nxtOSEK/ecrobot/../ecrobot/libecrobot.a(ecrobot_interface.o)
ecrobot_get_sonar_sensor                          /home/nxtOSEK/ecrobot/../ecrobot/libecrobot.a(ecrobot_interface.o)
ecrobot_get_sound_sensor                          /home/nxtOSEK/ecrobot/../ecrobot/libecrobot.a(ecrobot_interface.o)
ecrobot_get_systick_ms                            /home/nxtOSEK/ecrobot/../ecrobot/libecrobot.a(ecrobot_interface.o)
ecrobot_get_touch_sensor                          /home/nxtOSEK/ecrobot/../ecrobot/libecrobot.a(ecrobot_interface.o)
ecrobot_initDeviceStatus                          /home/nxtOSEK/ecrobot/../ecrobot/libecrobot.a(ecrobot_interface.o)
                                                  build/ecrobot.o
ecrobot_init_bt_connection                        build/ecrobot_bluetooth.o
ecrobot_init_bt_master                            build/ecrobot_bluetooth.o
                                                  /home/nxtOSEK/ecrobot/../ecrobot/libecrobot++.a(Bluetooth.o)
ecrobot_init_bt_slave                             build/ecrobot_bluetooth.o
                                                  /home/nxtOSEK/ecrobot/../ecrobot/libecrobot++.a(Bluetooth.o)
ecrobot_init_i2c                                  /home/nxtOSEK/ecrobot/../ecrobot/libecrobot.a(ecrobot_interface.o)
ecrobot_init_nxtcolorsensor                       /home/nxtOSEK/ecrobot/../ecrobot/libecrobot.a(ecrobot_interface.o)
ecrobot_init_nxtstate                             /home/nxtOSEK/ecrobot/../ecrobot/libecrobot.a(ecrobot_interface.o)
                                                  build/ecrobot.o
ecrobot_init_sonar_sensor                         /home/nxtOSEK/ecrobot/../ecrobot/libecrobot.a(ecrobot_interface.o)
ecrobot_init_usb                                  /home/nxtOSEK/ecrobot/../ecrobot/libecrobot.a(ecrobot_usb.o)
                                                  /home/nxtOSEK/ecrobot/../ecrobot/libecrobot.a(flash_loader.oram)
ecrobot_is_ENTER_button_pressed                   /home/nxtOSEK/ecrobot/../ecrobot/libecrobot.a(ecrobot_interface.o)
                                                  /home/nxtOSEK/ecrobot/../ecrobot/libecrobot++.a(Nxt.o)
ecrobot_is_RUN_button_pressed                     /home/nxtOSEK/ecrobot/../ecrobot/libecrobot.a(ecrobot_interface.o)
                                                  /home/nxtOSEK/ecrobot/../ecrobot/libecrobot++.a(Nxt.o)
ecrobot_is_usb_connected                          /home/nxtOSEK/ecrobot/../ecrobot/libecrobot.a(ecrobot_usb.o)
ecrobot_poll_nxtstate                             /home/nxtOSEK/ecrobot/../ecrobot/libecrobot.a(ecrobot_interface.o)
                                                  build/ecrobot.o
                                                  build/ecrobot_base.o
ecrobot_process1ms_usb                            /home/nxtOSEK/ecrobot/../ecrobot/libecrobot.a(ecrobot_usb.o)
                                                  /home/nxtOSEK/ecrobot/../ecrobot/libecrobot.a(flash_loader.oram)
ecrobot_process_bg_nxtcolorsensor                 /home/nxtOSEK/ecrobot/../ecrobot/libecrobot.a(ecrobot_interface.o)
ecrobot_read_bt                                   build/ecrobot_bluetooth.o
                                                  /home/nxtOSEK/ecrobot/../ecrobot/libecrobot++.a(Bluetooth.o)
ecrobot_read_bt_packet                            build/ecrobot_bluetooth.o
                                                  /home/nxtOSEK/ecrobot/../ecrobot/libecrobot++.a(Bluetooth.o)
ecrobot_read_i2c                                  /home/nxtOSEK/ecrobot/../ecrobot/libecrobot.a(ecrobot_interface.o)
ecrobot_read_usb                                  /home/nxtOSEK/ecrobot/../ecrobot/libecrobot.a(ecrobot_usb.o)
                                                  /home/nxtOSEK/ecrobot/../ecrobot/libecrobot.a(flash_loader.oram)
ecrobot_restart_NXT                               /home/nxtOSEK/ecrobot/../ecrobot/libecrobot.a(ecrobot_interface.o)
                                                  /home/nxtOSEK/ecrobot/../ecrobot/libecrobot++.a(Nxt.o)
ecrobot_send_bt                                   build/ecrobot_bluetooth.o
                                                  /home/nxtOSEK/ecrobot/../ecrobot/libecrobot++.a(Bluetooth.o)
ecrobot_send_bt_packet                            build/ecrobot_bluetooth.o
                                                  /home/nxtOSEK/ecrobot/../ecrobot/libecrobot.a(ecrobot_interface.o)
                                                  /home/nxtOSEK/ecrobot/../ecrobot/libecrobot++.a(Bluetooth.o)
ecrobot_send_i2c                                  /home/nxtOSEK/ecrobot/../ecrobot/libecrobot.a(ecrobot_interface.o)
ecrobot_send_usb                                  /home/nxtOSEK/ecrobot/../ecrobot/libecrobot.a(ecrobot_usb.o)
                                                  /home/nxtOSEK/ecrobot/../ecrobot/libecrobot.a(flash_loader.oram)
ecrobot_setDeviceInitialized                      /home/nxtOSEK/ecrobot/../ecrobot/libecrobot.a(ecrobot_interface.o)
                                                  build/ecrobot.o
ecrobot_set_RCX_power_source                      /home/nxtOSEK/ecrobot/../ecrobot/libecrobot.a(ecrobot_interface.o)
ecrobot_set_bt_device_name                        build/ecrobot_bluetooth.o
                                                  /home/nxtOSEK/ecrobot/../ecrobot/libecrobot++.a(Bluetooth.o)
ecrobot_set_bt_factory_settings                   build/ecrobot_bluetooth.o
                                                  /home/nxtOSEK/ecrobot/../ecrobot/libecrobot++.a(Bluetooth.o)
ecrobot_set_light_sensor_active                   /home/nxtOSEK/ecrobot/../ecrobot/libecrobot.a(ecrobot_interface.o)
ecrobot_set_light_sensor_inactive                 /home/nxtOSEK/ecrobot/../ecrobot/libecrobot.a(ecrobot_interface.o)
ecrobot_set_motor_mode_speed                      /home/nxtOSEK/ecrobot/../ecrobot/libecrobot.a(ecrobot_interface.o)
ecrobot_set_motor_rev                             /home/nxtOSEK/ecrobot/../ecrobot/libecrobot.a(ecrobot_interface.o)
ecrobot_set_motor_speed                           /home/nxtOSEK/ecrobot/../ecrobot/libecrobot.a(ecrobot_interface.o)
ecrobot_set_name_usb                              /home/nxtOSEK/ecrobot/../ecrobot/libecrobot.a(ecrobot_usb.o)
                                                  /home/nxtOSEK/ecrobot/../ecrobot/libecrobot.a(flash_loader.oram)
ecrobot_set_nxtcolorsensor                        /home/nxtOSEK/ecrobot/../ecrobot/libecrobot.a(ecrobot_interface.o)
ecrobot_show_int                                  /home/nxtOSEK/ecrobot/../ecrobot/libecrobot.a(ecrobot_interface.o)
ecrobot_shutdown_NXT                              /home/nxtOSEK/ecrobot/../ecrobot/libecrobot.a(ecrobot_interface.o)
                                                  /home/nxtOSEK/ecrobot/../ecrobot/libecrobot++.a(Nxt.o)
ecrobot_sint_var_monitor                          /home/nxtOSEK/ecrobot/../ecrobot/libecrobot.a(ecrobot_interface.o)
ecrobot_sound_tone                                /home/nxtOSEK/ecrobot/../ecrobot/libecrobot.a(ecrobot_interface.o)
                                                  /home/nxtOSEK/ecrobot/../ecrobot/libecrobot++.a(Speaker.o)
ecrobot_sound_wav                                 /home/nxtOSEK/ecrobot/../ecrobot/libecrobot.a(ecrobot_interface.o)
                                                  /home/nxtOSEK/ecrobot/../ecrobot/libecrobot++.a(Speaker.o)
ecrobot_status_monitor                            /home/nxtOSEK/ecrobot/../ecrobot/libecrobot.a(ecrobot_interface.o)
ecrobot_term_RCX_power_source                     /home/nxtOSEK/ecrobot/../ecrobot/libecrobot.a(ecrobot_interface.o)
ecrobot_term_bt_connection                        build/ecrobot_bluetooth.o
                                                  /home/nxtOSEK/ecrobot/../ecrobot/libecrobot++.a(Bluetooth.o)
ecrobot_term_i2c                                  /home/nxtOSEK/ecrobot/../ecrobot/libecrobot.a(ecrobot_interface.o)
ecrobot_term_nxtcolorsensor                       /home/nxtOSEK/ecrobot/../ecrobot/libecrobot.a(ecrobot_interface.o)
ecrobot_term_sonar_sensor                         /home/nxtOSEK/ecrobot/../ecrobot/libecrobot.a(ecrobot_interface.o)
ecrobot_term_usb                                  /home/nxtOSEK/ecrobot/../ecrobot/libecrobot.a(ecrobot_usb.o)
                                                  /home/nxtOSEK/ecrobot/../ecrobot/libecrobot.a(flash_loader.oram)
ecrobot_wait_i2c_ready                            /home/nxtOSEK/ecrobot/../ecrobot/libecrobot.a(ecrobot_interface.o)
enable_int                                        build/config/at91sam7s-gnu/cpu_support.oram
                                                  build/kernel/task_manage.o
                                                  build/kernel/resource.o
                                                  build/kernel/osctl.o
                                                  build/kernel/interrupt.o
                                                  build/kernel/event.o
                                                  build/kernel/alarm.o
end                                               build/syscalls.o
exec_NXT_BIOS                                     build/ecrobot_base.o
                                                  /home/nxtOSEK/ecrobot/../ecrobot/libecrobot.a(ecrobot_interface.o)
exec_addr                                         build/ecrobot_base.o
exec_app                                          /home/nxtOSEK/ecrobot/../ecrobot/libecrobot.a(flash_loader.oram)
execution_mode                                    build/ecrobot_base.o
                                                  build/ecrobot.o
exit_and_dispatch                                 build/config/at91sam7s-gnu/cpu_support.oram
                                                  build/kernel/task_manage.o
fabs                                              /home/GNUARM/bin/../lib/gcc/arm-elf/4.0.2/../../../../arm-elf/lib/thumb/interwork/libm.a(s_fabs.o)
                                                  /home/GNUARM/bin/../lib/gcc/arm-elf/4.0.2/../../../../arm-elf/lib/thumb/interwork/libm.a(e_rem_pio2.o)
fiq_enable                                        /home/nxtOSEK/ecrobot/../ecrobot/libecrobot.a(interrupts.oram)
fiq_get_and_disable                               /home/nxtOSEK/ecrobot/../ecrobot/libecrobot.a(interrupts.oram)
flash_erase_range                                 /home/nxtOSEK/ecrobot/../ecrobot/libecrobot.a(flashprog.oram)
flash_loader                                      /home/nxtOSEK/ecrobot/../ecrobot/libecrobot.a(flash_loader.oram)
flash_set_mode                                    /home/nxtOSEK/ecrobot/../ecrobot/libecrobot.a(flashprog.oram)
flash_write                                       /home/nxtOSEK/ecrobot/../ecrobot/libecrobot.a(flashprog.oram)
flash_write_page                                  /home/nxtOSEK/ecrobot/../ecrobot/libecrobot.a(flashprog.oram)
                                                  /home/nxtOSEK/ecrobot/../ecrobot/libecrobot.a(flash_loader.oram)
floor                                             /home/GNUARM/bin/../lib/gcc/arm-elf/4.0.2/../../../../arm-elf/lib/thumb/interwork/libm.a(s_floor.o)
                                                  /home/GNUARM/bin/../lib/gcc/arm-elf/4.0.2/../../../../arm-elf/lib/thumb/interwork/libm.a(k_rem_pio2.o)
free                                              /home/GNUARM/bin/../lib/gcc/arm-elf/4.0.2/../../../../arm-elf/lib/thumb/interwork/libc.a(malloc.o)
                                                  /home/nxtOSEK/ecrobot/../ecrobot/libecrobot++.a(New.o)
getPositionEstimation(_Position const&, long, long, double, double, _Position&) build/PositionEstimation.o
                                                  build/Navigator.o
get_OS_flag                                       build/ecrobot_base.o
                                                  build/syslib/at91sam7s-gnu/lego_nxt/hw_sys_timer.oram
                                                  build/rtoscalls.o
get_device_status                                 /home/nxtOSEK/ecrobot/../ecrobot/libecrobot.a(ecrobot_interface.o)
gyro                                              build/Robot.o
has_flash_request                                 /home/nxtOSEK/ecrobot/../ecrobot/libecrobot.a(flash_loader.oram)
i2c_busy                                          /home/nxtOSEK/ecrobot/../ecrobot/libecrobot.a(i2c.oram)
                                                  /home/nxtOSEK/ecrobot/../ecrobot/libecrobot.a(ecrobot_interface.o)
                                                  build/rtoscalls.o
i2c_disable                                       /home/nxtOSEK/ecrobot/../ecrobot/libecrobot.a(i2c.oram)
                                                  /home/nxtOSEK/ecrobot/../ecrobot/libecrobot.a(ecrobot_interface.o)
                                                  /home/nxtOSEK/ecrobot/../ecrobot/libecrobot++.a(I2c.o)
i2c_enable                                        /home/nxtOSEK/ecrobot/../ecrobot/libecrobot.a(i2c.oram)
                                                  /home/nxtOSEK/ecrobot/../ecrobot/libecrobot.a(ecrobot_interface.o)
                                                  /home/nxtOSEK/ecrobot/../ecrobot/libecrobot++.a(I2c.o)
i2c_init                                          /home/nxtOSEK/ecrobot/../ecrobot/libecrobot.a(i2c.oram)
                                                  /home/nxtOSEK/ecrobot/../ecrobot/libecrobot.a(flash_loader.oram)
i2c_start_transaction                             /home/nxtOSEK/ecrobot/../ecrobot/libecrobot.a(i2c.oram)
                                                  /home/nxtOSEK/ecrobot/../ecrobot/libecrobot.a(ecrobot_interface.o)
                                                  /home/nxtOSEK/ecrobot/../ecrobot/libecrobot++.a(I2c.o)
i2c_timer_isr_C                                   /home/nxtOSEK/ecrobot/../ecrobot/libecrobot.a(i2c.oram)
                                                  build/config/at91sam7s-gnu/irq.oram
i2c_timer_isr_entry                               build/config/at91sam7s-gnu/irq.oram
                                                  /home/nxtOSEK/ecrobot/../ecrobot/libecrobot.a(i2c.oram)
init_OS_flag                                      build/ecrobot_base.o
                                                  build/ecrobot.o
init_sensors                                      /home/nxtOSEK/ecrobot/../ecrobot/libecrobot.a(sensors.oram)
                                                  /home/nxtOSEK/ecrobot/../ecrobot/libecrobot.a(flash_loader.oram)
int_return                                        build/config/at91sam7s-gnu/cpu_support.oram
interrupt_initialize                              build/kernel/interrupt.o
interrupts_enable                                 /home/nxtOSEK/ecrobot/../ecrobot/libecrobot.a(interrupts.oram)
                                                  /home/nxtOSEK/ecrobot/../ecrobot/libecrobot.a(flashprog.oram)
                                                  /home/nxtOSEK/ecrobot/../ecrobot/libecrobot.a(flash_loader.oram)
                                                  /home/nxtOSEK/ecrobot/../ecrobot/libecrobot.a(i2c.oram)
                                                  /home/nxtOSEK/ecrobot/../ecrobot/libecrobot.a(nxt_motors.oram)
                                                  /home/nxtOSEK/ecrobot/../ecrobot/libecrobot.a(nxt_spi.oram)
                                                  /home/nxtOSEK/ecrobot/../ecrobot/libecrobot.a(twi.oram)
                                                  /home/nxtOSEK/ecrobot/../ecrobot/libecrobot.a(udp.oram)
                                                  /home/nxtOSEK/ecrobot/../ecrobot/libecrobot.a(aic.oram)
                                                  /home/nxtOSEK/ecrobot/../ecrobot/libecrobot.a(systick.oram)
                                                  /home/nxtOSEK/ecrobot/../ecrobot/libecrobot.a(uart.oram)
interrupts_get_and_disable                        /home/nxtOSEK/ecrobot/../ecrobot/libecrobot.a(interrupts.oram)
                                                  /home/nxtOSEK/ecrobot/../ecrobot/libecrobot.a(flashprog.oram)
                                                  /home/nxtOSEK/ecrobot/../ecrobot/libecrobot.a(i2c.oram)
                                                  /home/nxtOSEK/ecrobot/../ecrobot/libecrobot.a(nxt_motors.oram)
                                                  /home/nxtOSEK/ecrobot/../ecrobot/libecrobot.a(nxt_spi.oram)
                                                  /home/nxtOSEK/ecrobot/../ecrobot/libecrobot.a(twi.oram)
                                                  /home/nxtOSEK/ecrobot/../ecrobot/libecrobot.a(udp.oram)
                                                  /home/nxtOSEK/ecrobot/../ecrobot/libecrobot.a(aic.oram)
                                                  /home/nxtOSEK/ecrobot/../ecrobot/libecrobot.a(systick.oram)
                                                  /home/nxtOSEK/ecrobot/../ecrobot/libecrobot.a(uart.oram)
ipl_maxisr2                                       build/./kernel_cfg.o
is_bios_version_equal                             /home/nxtOSEK/ecrobot/../ecrobot/libecrobot.a(flash_loader.oram)
isnan                                             /home/GNUARM/bin/../lib/gcc/arm-elf/4.0.2/../../../../arm-elf/lib/thumb/interwork/libm.a(s_isnan.o)
                                                  /home/GNUARM/bin/../lib/gcc/arm-elf/4.0.2/../../../../arm-elf/lib/thumb/interwork/libm.a(w_sqrt.o)
isrcb_lastres                                     build/./kernel_cfg.o
                                                  build/kernel/resource.o
                                                  build/kernel/interrupt.o
isrinib_intpri                                    build/./kernel_cfg.o
                                                  build/kernel/resource.o
lcd                                               build/Robot.o
light                                             build/Robot.o
logvol                                            /home/nxtOSEK/ecrobot/../ecrobot/libecrobot.a(sound.oram)
main                                              build/ecrobot.o
                                                  build/ecrobot_init.o
make_active                                       build/kernel/task.o
                                                  build/kernel/task_manage.o
make_runnable                                     build/kernel/task.o
                                                  build/kernel/event.o
malloc                                            /home/GNUARM/bin/../lib/gcc/arm-elf/4.0.2/../../../../arm-elf/lib/thumb/interwork/libc.a(malloc.o)
                                                  /home/nxtOSEK/ecrobot/../ecrobot/libecrobot++.a(New.o)
marker_check                                      build/Robot.o
matherr                                           /home/GNUARM/bin/../lib/gcc/arm-elf/4.0.2/../../../../arm-elf/lib/thumb/interwork/libm.a(s_matherr.o)
                                                  /home/GNUARM/bin/../lib/gcc/arm-elf/4.0.2/../../../../arm-elf/lib/thumb/interwork/libm.a(w_sqrt.o)
memcpy                                            /home/GNUARM/bin/../lib/gcc/arm-elf/4.0.2/../../../../arm-elf/lib/thumb/interwork/libc.a(memcpy.o)
                                                  /home/nxtOSEK/ecrobot/../ecrobot/libecrobot.a(ecrobot_usb.o)
                                                  /home/nxtOSEK/ecrobot/../ecrobot/libecrobot.a(bt.oram)
                                                  /home/nxtOSEK/ecrobot/../ecrobot/libecrobot.a(udp.oram)
memset                                            /home/GNUARM/bin/../lib/gcc/arm-elf/4.0.2/../../../../arm-elf/lib/thumb/interwork/libc.a(memset.o)
                                                  /home/nxtOSEK/ecrobot/../ecrobot/libecrobot.a(ecrobot_usb.o)
                                                  /home/nxtOSEK/ecrobot/../ecrobot/libecrobot.a(flash_loader.oram)
                                                  /home/nxtOSEK/ecrobot/../ecrobot/libecrobot.a(nxt_avr.oram)
                                                  /home/nxtOSEK/ecrobot/../ecrobot/libecrobot.a(i2c.oram)
                                                  /home/nxtOSEK/ecrobot/../ecrobot/libecrobot.a(display.oram)
                                                  /home/nxtOSEK/ecrobot/../ecrobot/libecrobot.a(ecrobot_interface.o)
                                                  build/Driver.o
                                                  build/ecrobot_base.o
                                                  build/ecrobot_bluetooth.o
mode                                              /home/nxtOSEK/ecrobot/../ecrobot/libecrobot.a(nxt_spi.oram)
motorL                                            build/Robot.o
motorR                                            build/Robot.o
nextpri                                           build/kernel/task_manage.o
                                                  build/kernel/task.o
                                                  build/kernel/resource.o
nop                                               build/config/at91sam7s-gnu/cpu_support.oram
notes                                             build/TechBezierTrace.o
                                                  build/Technic.o
                                                  build/Driver.o
nxt                                               build/Robot.o
nxt_avr_1kHz_update                               /home/nxtOSEK/ecrobot/../ecrobot/libecrobot.a(nxt_avr.oram)
                                                  /home/nxtOSEK/ecrobot/../ecrobot/libecrobot.a(flashprog.oram)
                                                  /home/nxtOSEK/ecrobot/../ecrobot/libecrobot.a(systick.oram)
nxt_avr_firmware_update_mode                      /home/nxtOSEK/ecrobot/../ecrobot/libecrobot.a(nxt_avr.oram)
nxt_avr_init                                      /home/nxtOSEK/ecrobot/../ecrobot/libecrobot.a(nxt_avr.oram)
                                                  /home/nxtOSEK/ecrobot/../ecrobot/libecrobot.a(flash_loader.oram)
nxt_avr_link_init                                 /home/nxtOSEK/ecrobot/../ecrobot/libecrobot.a(nxt_avr.oram)
nxt_avr_power_down                                /home/nxtOSEK/ecrobot/../ecrobot/libecrobot.a(nxt_avr.oram)
                                                  /home/nxtOSEK/ecrobot/../ecrobot/libecrobot.a(flash_loader.oram)
                                                  build/ecrobot.o
                                                  build/ecrobot_base.o
nxt_avr_set_input_power                           /home/nxtOSEK/ecrobot/../ecrobot/libecrobot.a(nxt_avr.oram)
                                                  /home/nxtOSEK/ecrobot/../ecrobot/libecrobot.a(sensors1.oram)
                                                  /home/nxtOSEK/ecrobot/../ecrobot/libecrobot.a(sensors.oram)
                                                  /home/nxtOSEK/ecrobot/../ecrobot/libecrobot.a(ecrobot_interface.o)
                                                  /home/nxtOSEK/ecrobot/../ecrobot/libecrobot++.a(TouchSensor.o)
                                                  /home/nxtOSEK/ecrobot/../ecrobot/libecrobot++.a(LightSensor.o)
                                                  /home/nxtOSEK/ecrobot/../ecrobot/libecrobot++.a(I2c.o)
                                                  /home/nxtOSEK/ecrobot/../ecrobot/libecrobot++.a(GyroSensor.o)
                                                  build/Robot.o
nxt_avr_set_motor                                 /home/nxtOSEK/ecrobot/../ecrobot/libecrobot.a(nxt_avr.oram)
                                                  /home/nxtOSEK/ecrobot/../ecrobot/libecrobot.a(nxt_motors.oram)
nxt_device_init                                   /home/nxtOSEK/ecrobot/../ecrobot/libecrobot.a(flash_loader.oram)
                                                  build/ecrobot.o
nxt_lcd_command                                   /home/nxtOSEK/ecrobot/../ecrobot/libecrobot.a(nxt_lcd.oram)
nxt_lcd_enable                                    /home/nxtOSEK/ecrobot/../ecrobot/libecrobot.a(nxt_lcd.oram)
nxt_lcd_force_update                              /home/nxtOSEK/ecrobot/../ecrobot/libecrobot.a(nxt_lcd.oram)
                                                  /home/nxtOSEK/ecrobot/../ecrobot/libecrobot.a(display.oram)
nxt_lcd_init                                      /home/nxtOSEK/ecrobot/../ecrobot/libecrobot.a(nxt_lcd.oram)
                                                  /home/nxtOSEK/ecrobot/../ecrobot/libecrobot.a(display.oram)
nxt_lcd_inverse_display                           /home/nxtOSEK/ecrobot/../ecrobot/libecrobot.a(nxt_lcd.oram)
nxt_lcd_power_down                                /home/nxtOSEK/ecrobot/../ecrobot/libecrobot.a(nxt_lcd.oram)
                                                  /home/nxtOSEK/ecrobot/../ecrobot/libecrobot.a(flash_loader.oram)
                                                  build/ecrobot.o
                                                  build/ecrobot_base.o
nxt_lcd_power_up                                  /home/nxtOSEK/ecrobot/../ecrobot/libecrobot.a(nxt_lcd.oram)
nxt_lcd_reset                                     /home/nxtOSEK/ecrobot/../ecrobot/libecrobot.a(nxt_lcd.oram)
nxt_lcd_set_all_pixels_on                         /home/nxtOSEK/ecrobot/../ecrobot/libecrobot.a(nxt_lcd.oram)
nxt_lcd_set_bias_ratio                            /home/nxtOSEK/ecrobot/../ecrobot/libecrobot.a(nxt_lcd.oram)
nxt_lcd_set_col                                   /home/nxtOSEK/ecrobot/../ecrobot/libecrobot.a(nxt_lcd.oram)
nxt_lcd_set_cursor_update                         /home/nxtOSEK/ecrobot/../ecrobot/libecrobot.a(nxt_lcd.oram)
nxt_lcd_set_frame_rate                            /home/nxtOSEK/ecrobot/../ecrobot/libecrobot.a(nxt_lcd.oram)
nxt_lcd_set_map_control                           /home/nxtOSEK/ecrobot/../ecrobot/libecrobot.a(nxt_lcd.oram)
nxt_lcd_set_multiplex_rate                        /home/nxtOSEK/ecrobot/../ecrobot/libecrobot.a(nxt_lcd.oram)
nxt_lcd_set_page_address                          /home/nxtOSEK/ecrobot/../ecrobot/libecrobot.a(nxt_lcd.oram)
nxt_lcd_set_panel_loading                         /home/nxtOSEK/ecrobot/../ecrobot/libecrobot.a(nxt_lcd.oram)
nxt_lcd_set_pot                                   /home/nxtOSEK/ecrobot/../ecrobot/libecrobot.a(nxt_lcd.oram)
nxt_lcd_set_pump_control                          /home/nxtOSEK/ecrobot/../ecrobot/libecrobot.a(nxt_lcd.oram)
nxt_lcd_set_ram_address_control                   /home/nxtOSEK/ecrobot/../ecrobot/libecrobot.a(nxt_lcd.oram)
nxt_lcd_set_scroll_line                           /home/nxtOSEK/ecrobot/../ecrobot/libecrobot.a(nxt_lcd.oram)
nxt_lcd_set_temp_comp                             /home/nxtOSEK/ecrobot/../ecrobot/libecrobot.a(nxt_lcd.oram)
nxt_lcd_update                                    /home/nxtOSEK/ecrobot/../ecrobot/libecrobot.a(nxt_lcd.oram)
                                                  /home/nxtOSEK/ecrobot/../ecrobot/libecrobot.a(display.oram)
nxt_motor_1kHz_process                            /home/nxtOSEK/ecrobot/../ecrobot/libecrobot.a(nxt_motors.oram)
                                                  /home/nxtOSEK/ecrobot/../ecrobot/libecrobot.a(systick.oram)
nxt_motor_command                                 /home/nxtOSEK/ecrobot/../ecrobot/libecrobot.a(nxt_motors.oram)
nxt_motor_get_count                               /home/nxtOSEK/ecrobot/../ecrobot/libecrobot.a(nxt_motors.oram)
                                                  /home/nxtOSEK/ecrobot/../ecrobot/libecrobot.a(ecrobot_interface.o)
                                                  /home/nxtOSEK/ecrobot/../ecrobot/libecrobot++.a(Daq.o)
                                                  build/Robot.o
nxt_motor_init                                    /home/nxtOSEK/ecrobot/../ecrobot/libecrobot.a(nxt_motors.oram)
                                                  /home/nxtOSEK/ecrobot/../ecrobot/libecrobot.a(flash_loader.oram)
nxt_motor_isr_C                                   /home/nxtOSEK/ecrobot/../ecrobot/libecrobot.a(nxt_motors.oram)
                                                  build/config/at91sam7s-gnu/irq.oram
nxt_motor_isr_entry                               build/config/at91sam7s-gnu/irq.oram
                                                  /home/nxtOSEK/ecrobot/../ecrobot/libecrobot.a(nxt_motors.oram)
nxt_motor_quad_decode                             /home/nxtOSEK/ecrobot/../ecrobot/libecrobot.a(nxt_motors.oram)
nxt_motor_set_count                               /home/nxtOSEK/ecrobot/../ecrobot/libecrobot.a(nxt_motors.oram)
                                                  /home/nxtOSEK/ecrobot/../ecrobot/libecrobot.a(ecrobot_interface.o)
                                                  build/Robot.o
                                                  build/ecrobot.o
nxt_motor_set_speed                               /home/nxtOSEK/ecrobot/../ecrobot/libecrobot.a(nxt_motors.oram)
                                                  /home/nxtOSEK/ecrobot/../ecrobot/libecrobot.a(ecrobot_interface.o)
                                                  /home/nxtOSEK/ecrobot/../ecrobot/libecrobot++.a(Motor.o)
                                                  build/Robot.o
nxt_spi_init                                      /home/nxtOSEK/ecrobot/../ecrobot/libecrobot.a(nxt_spi.oram)
                                                  /home/nxtOSEK/ecrobot/../ecrobot/libecrobot.a(nxt_lcd.oram)
nxt_spi_refresh                                   /home/nxtOSEK/ecrobot/../ecrobot/libecrobot.a(nxt_spi.oram)
                                                  /home/nxtOSEK/ecrobot/../ecrobot/libecrobot.a(nxt_lcd.oram)
nxt_spi_set_display                               /home/nxtOSEK/ecrobot/../ecrobot/libecrobot.a(nxt_spi.oram)
                                                  /home/nxtOSEK/ecrobot/../ecrobot/libecrobot.a(nxt_lcd.oram)
nxt_spi_write                                     /home/nxtOSEK/ecrobot/../ecrobot/libecrobot.a(nxt_spi.oram)
                                                  /home/nxtOSEK/ecrobot/../ecrobot/libecrobot.a(nxt_lcd.oram)
nxtosek_splash_bmp_end                            /home/nxtOSEK/ecrobot/../ecrobot/libecrobot.a(nxtosek_splash.obmp)
nxtosek_splash_bmp_size                           /home/nxtOSEK/ecrobot/../ecrobot/libecrobot.a(nxtosek_splash.obmp)
nxtosek_splash_bmp_start                          /home/nxtOSEK/ecrobot/../ecrobot/libecrobot.a(nxtosek_splash.obmp)
                                                  build/ecrobot_base.o
object_initialize                                 build/./kernel_cfg.o
                                                  build/kernel/osctl.o
operator delete(void*)                            /home/nxtOSEK/ecrobot/../ecrobot/libecrobot++.a(New.o)
                                                  /home/nxtOSEK/ecrobot/../ecrobot/libecrobot++.a(TouchSensor.o)
                                                  /home/nxtOSEK/ecrobot/../ecrobot/libecrobot++.a(SonarSensor.o)
                                                  /home/nxtOSEK/ecrobot/../ecrobot/libecrobot++.a(LightSensor.o)
                                                  /home/nxtOSEK/ecrobot/../ecrobot/libecrobot++.a(I2c.o)
                                                  /home/nxtOSEK/ecrobot/../ecrobot/libecrobot++.a(GyroSensor.o)
                                                  build/Mission.o
                                                  build/Driver.o
                                                  build/Robot.o
operator delete(void*, void*)                     /home/nxtOSEK/ecrobot/../ecrobot/libecrobot++.a(New.o)
operator delete[](void*)                          /home/nxtOSEK/ecrobot/../ecrobot/libecrobot++.a(New.o)
operator delete[](void*, void*)                   /home/nxtOSEK/ecrobot/../ecrobot/libecrobot++.a(New.o)
operator new(unsigned long)                       /home/nxtOSEK/ecrobot/../ecrobot/libecrobot++.a(New.o)
                                                  build/Technic.o
                                                  build/Driver.o
                                                  build/Navigator.o
                                                  build/Robot.o
operator new(unsigned long, void*)                /home/nxtOSEK/ecrobot/../ecrobot/libecrobot++.a(New.o)
operator new[](unsigned long)                     /home/nxtOSEK/ecrobot/../ecrobot/libecrobot++.a(New.o)
                                                  build/Driver.o
                                                  build/Robot.o
operator new[](unsigned long, void*)              /home/nxtOSEK/ecrobot/../ecrobot/libecrobot++.a(New.o)
page                                              /home/nxtOSEK/ecrobot/../ecrobot/libecrobot.a(nxt_spi.oram)
pid_calc_rotation(PIDParam*, float, float, float, float*) build/PIDController.o
                                                  build/Technic.o
pid_calc_rotation(float, float, float, float, float, float, float*) build/PIDController.o
pid_light_param                                   build/PIDController.o
                                                  build/Technic.o
poll_sensors                                      /home/nxtOSEK/ecrobot/../ecrobot/libecrobot.a(sensors.oram)
preempt                                           build/kernel/task.o
                                                  build/kernel/task_manage.o
                                                  build/kernel/resource.o
prefetch_abort_handler                            build/ecrobot_init.o
                                                  build/nxtvm/platform/nxt/vectors.o
                                                  build/nxtvm/platform/nxt/vectors.o
read_buttons                                      /home/nxtOSEK/ecrobot/../ecrobot/libecrobot.a(sensors.oram)
rescb_prevpri                                     build/./kernel_cfg.o
                                                  build/kernel/resource.o
rescb_prevres                                     build/./kernel_cfg.o
                                                  build/kernel/resource.o
reserved_handler                                  build/ecrobot_init.o
                                                  build/nxtvm/platform/nxt/vectors.o
                                                  build/nxtvm/platform/nxt/vectors.o
resinib_ceilpri                                   build/./kernel_cfg.o
                                                  build/kernel/resource.o
resource_initialize                               build/kernel/resource.o
                                                  build/./kernel_cfg.o
restart_NXT                                       build/ecrobot_base.o
                                                  /home/nxtOSEK/ecrobot/../ecrobot/libecrobot.a(ecrobot_interface.o)
runisr                                            build/config/at91sam7s-gnu/irq.oram
                                                  build/config/at91sam7s-gnu/cpu_support.oram
                                                  build/kernel/resource.o
                                                  build/kernel/interrupt.o
runtsk                                            build/config/at91sam7s-gnu/cpu_support.oram
                                                  build/kernel/task_manage.o
                                                  build/kernel/task.o
                                                  build/kernel/resource.o
                                                  build/kernel/event.o
sample                                            /home/nxtOSEK/ecrobot/../ecrobot/libecrobot.a(sound.oram)
sample_pattern                                    /home/nxtOSEK/ecrobot/../ecrobot/libecrobot.a(sound.oram)
scalbn                                            /home/GNUARM/bin/../lib/gcc/arm-elf/4.0.2/../../../../arm-elf/lib/thumb/interwork/libm.a(s_scalbn.o)
                                                  /home/GNUARM/bin/../lib/gcc/arm-elf/4.0.2/../../../../arm-elf/lib/thumb/interwork/libm.a(k_rem_pio2.o)
schedtsk                                          build/config/at91sam7s-gnu/cpu_support.oram
                                                  build/kernel/task.o
search_schedtsk                                   build/kernel/task.o
                                                  build/kernel/task_manage.o
                                                  build/kernel/event.o
sensor_adc                                        /home/nxtOSEK/ecrobot/../ecrobot/libecrobot.a(nxt_avr.oram)
                                                  /home/nxtOSEK/ecrobot/../ecrobot/libecrobot.a(sensors1.oram)
                                                  /home/nxtOSEK/ecrobot/../ecrobot/libecrobot.a(sensors.oram)
                                                  /home/nxtOSEK/ecrobot/../ecrobot/libecrobot.a(ecrobot_interface.o)
                                                  /home/nxtOSEK/ecrobot/../ecrobot/libecrobot++.a(Daq.o)
                                                  /home/nxtOSEK/ecrobot/../ecrobot/libecrobot++.a(TouchSensor.o)
                                                  /home/nxtOSEK/ecrobot/../ecrobot/libecrobot++.a(LightSensor.o)
                                                  /home/nxtOSEK/ecrobot/../ecrobot/libecrobot++.a(GyroSensor.o)
                                                  build/Robot.o
sensor_pins                                       /home/nxtOSEK/ecrobot/../ecrobot/libecrobot.a(sensors1.oram)
                                                  /home/nxtOSEK/ecrobot/../ecrobot/libecrobot.a(colorsensor.o)
sensors                                           /home/nxtOSEK/ecrobot/../ecrobot/libecrobot.a(sensors.oram)
set_OS_flag                                       build/ecrobot_base.o
                                                  build/ecrobot.o
set_digi0                                         /home/nxtOSEK/ecrobot/../ecrobot/libecrobot.a(sensors.oram)
                                                  /home/nxtOSEK/ecrobot/../ecrobot/libecrobot.a(ecrobot_interface.o)
                                                  /home/nxtOSEK/ecrobot/../ecrobot/libecrobot++.a(LightSensor.o)
set_digi1                                         /home/nxtOSEK/ecrobot/../ecrobot/libecrobot.a(sensors.oram)
set_flash_request                                 /home/nxtOSEK/ecrobot/../ecrobot/libecrobot.a(flash_loader.oram)
                                                  build/ecrobot.o
                                                  build/ecrobot_base.o
show_bd_addr                                      build/ecrobot_base.o
                                                  build/ecrobot_bluetooth.o
show_bd_addr_err                                  build/ecrobot_base.o
                                                  build/ecrobot_bluetooth.o
show_main_screen                                  build/ecrobot_base.o
                                                  build/ecrobot.o
show_splash_screen                                build/ecrobot_base.o
                                                  build/ecrobot.o
shutdown_NXT                                      build/ecrobot_base.o
                                                  /home/nxtOSEK/ecrobot/../ecrobot/libecrobot.a(ecrobot_interface.o)
silence                                           /home/nxtOSEK/ecrobot/../ecrobot/libecrobot.a(sound.oram)
sin                                               /home/GNUARM/bin/../lib/gcc/arm-elf/4.0.2/../../../../arm-elf/lib/thumb/interwork/libm.a(s_sin.o)
                                                  build/TechBezierTrace.o
                                                  build/PositionEstimation.o
                                                  build/Navigator.o
sine                                              /home/nxtOSEK/ecrobot/../ecrobot/libecrobot.a(sound.oram)
sonar                                             build/Robot.o
sound_disable                                     /home/nxtOSEK/ecrobot/../ecrobot/libecrobot.a(sound.oram)
sound_enable                                      /home/nxtOSEK/ecrobot/../ecrobot/libecrobot.a(sound.oram)
sound_fill_sample_buffer                          /home/nxtOSEK/ecrobot/../ecrobot/libecrobot.a(sound.oram)
sound_freq                                        /home/nxtOSEK/ecrobot/../ecrobot/libecrobot.a(sound.oram)
sound_freq_vol                                    /home/nxtOSEK/ecrobot/../ecrobot/libecrobot.a(sound.oram)
                                                  /home/nxtOSEK/ecrobot/../ecrobot/libecrobot.a(ecrobot_interface.o)
sound_get_time                                    /home/nxtOSEK/ecrobot/../ecrobot/libecrobot.a(sound.oram)
                                                  /home/nxtOSEK/ecrobot/../ecrobot/libecrobot.a(ecrobot_interface.o)
sound_init                                        /home/nxtOSEK/ecrobot/../ecrobot/libecrobot.a(sound.oram)
                                                  /home/nxtOSEK/ecrobot/../ecrobot/libecrobot.a(flash_loader.oram)
sound_interrupt_disable                           /home/nxtOSEK/ecrobot/../ecrobot/libecrobot.a(sound.oram)
sound_interrupt_enable                            /home/nxtOSEK/ecrobot/../ecrobot/libecrobot.a(sound.oram)
sound_isr_C                                       /home/nxtOSEK/ecrobot/../ecrobot/libecrobot.a(sound.oram)
                                                  build/config/at91sam7s-gnu/irq.oram
sound_isr_entry                                   build/config/at91sam7s-gnu/irq.oram
                                                  /home/nxtOSEK/ecrobot/../ecrobot/libecrobot.a(sound.oram)
sound_mode                                        /home/nxtOSEK/ecrobot/../ecrobot/libecrobot.a(sound.oram)
sound_play_sample                                 /home/nxtOSEK/ecrobot/../ecrobot/libecrobot.a(sound.oram)
                                                  /home/nxtOSEK/ecrobot/../ecrobot/libecrobot.a(ecrobot_interface.o)
sp_get                                            /home/nxtOSEK/ecrobot/../ecrobot/libecrobot.a(sensors1.oram)
                                                  /home/nxtOSEK/ecrobot/../ecrobot/libecrobot.a(colorsensor.o)
sp_init                                           /home/nxtOSEK/ecrobot/../ecrobot/libecrobot.a(sensors1.oram)
sp_read                                           /home/nxtOSEK/ecrobot/../ecrobot/libecrobot.a(sensors1.oram)
                                                  /home/nxtOSEK/ecrobot/../ecrobot/libecrobot.a(colorsensor.o)
sp_reset                                          /home/nxtOSEK/ecrobot/../ecrobot/libecrobot.a(sensors1.oram)
                                                  /home/nxtOSEK/ecrobot/../ecrobot/libecrobot.a(colorsensor.o)
sp_set                                            /home/nxtOSEK/ecrobot/../ecrobot/libecrobot.a(sensors1.oram)
                                                  /home/nxtOSEK/ecrobot/../ecrobot/libecrobot.a(colorsensor.o)
sp_set_mode                                       /home/nxtOSEK/ecrobot/../ecrobot/libecrobot.a(sensors1.oram)
                                                  /home/nxtOSEK/ecrobot/../ecrobot/libecrobot.a(colorsensor.o)
sp_set_power                                      /home/nxtOSEK/ecrobot/../ecrobot/libecrobot.a(sensors1.oram)
speaker                                           build/Robot.o
spi_isr_C                                         /home/nxtOSEK/ecrobot/../ecrobot/libecrobot.a(nxt_spi.oram)
                                                  build/config/at91sam7s-gnu/irq.oram
spi_isr_entry                                     build/config/at91sam7s-gnu/irq.oram
                                                  /home/nxtOSEK/ecrobot/../ecrobot/libecrobot.a(nxt_spi.oram)
spurious_isr                                      build/config/at91sam7s-gnu/irq.oram
                                                  /home/nxtOSEK/ecrobot/../ecrobot/libecrobot.a(aic.oram)
sqrt                                              /home/GNUARM/bin/../lib/gcc/arm-elf/4.0.2/../../../../arm-elf/lib/thumb/interwork/libm.a(w_sqrt.o)
                                                  build/Vec.o
                                                  build/Navigator.o
start                                             build/ecrobot_init.o
                                                  build/nxtvm/platform/nxt/vectors.o
                                                  build/nxtvm/platform/nxt/vectors.o
                                                  build/ecrobot_base.o
start_dispatch                                    build/config/at91sam7s-gnu/cpu_support.oram
                                                  build/kernel/osctl.o
strcmp                                            /home/GNUARM/bin/../lib/gcc/arm-elf/4.0.2/../../../../arm-elf/lib/thumb/interwork/libc.a(strcmp.o)
                                                  /home/nxtOSEK/ecrobot/../ecrobot/libecrobot.a(ecrobot_usb.o)
                                                  /home/nxtOSEK/ecrobot/../ecrobot/libecrobot.a(flash_loader.oram)
strcpy                                            /home/GNUARM/bin/../lib/gcc/arm-elf/4.0.2/../../../../arm-elf/lib/thumb/interwork/libc.a(strcpy.o)
                                                  /home/nxtOSEK/ecrobot/../ecrobot/libecrobot.a(ecrobot_usb.o)
                                                  /home/nxtOSEK/ecrobot/../ecrobot/libecrobot.a(flash_loader.oram)
                                                  build/ecrobot_base.o
strlen                                            /home/GNUARM/bin/../lib/gcc/arm-elf/4.0.2/../../../../arm-elf/lib/thumb/interwork/libc.a(strlen.o)
                                                  /home/nxtOSEK/ecrobot/../ecrobot/libecrobot.a(nxt_avr.oram)
                                                  build/ecrobot_base.o
strncpy                                           /home/GNUARM/bin/../lib/gcc/arm-elf/4.0.2/../../../../arm-elf/lib/thumb/interwork/libc.a(strncpy.o)
                                                  build/ecrobot_bluetooth.o
sus_all_cnt                                       build/kernel/osctl.o
                                                  build/kernel/interrupt.o
swi_handler                                       build/ecrobot_init.o
                                                  build/nxtvm/platform/nxt/vectors.o
                                                  build/nxtvm/platform/nxt/vectors.o
sys_exit                                          build/config/at91sam7s-gnu/lego_nxt/sys_config.o
                                                  build/kernel/osctl.o
sys_initialize                                    build/config/at91sam7s-gnu/lego_nxt/sys_config.o
                                                  build/kernel/osctl.o
systick_get_ms                                    /home/nxtOSEK/ecrobot/../ecrobot/libecrobot.a(systick.oram)
                                                  /home/nxtOSEK/ecrobot/../ecrobot/libecrobot.a(flashprog.oram)
                                                  /home/nxtOSEK/ecrobot/../ecrobot/libecrobot.a(display.oram)
                                                  /home/nxtOSEK/ecrobot/../ecrobot/libecrobot.a(ecrobot_interface.o)
                                                  /home/nxtOSEK/ecrobot/../ecrobot/libecrobot++.a(Daq.o)
                                                  /home/nxtOSEK/ecrobot/../ecrobot/libecrobot++.a(Clock.o)
                                                  /home/nxtOSEK/ecrobot/../ecrobot/libecrobot++.a(Bluetooth.o)
                                                  build/Robot.o
                                                  build/ecrobot.o
                                                  build/ecrobot_base.o
                                                  build/ecrobot_bluetooth.o
systick_init                                      /home/nxtOSEK/ecrobot/../ecrobot/libecrobot.a(systick.oram)
                                                  /home/nxtOSEK/ecrobot/../ecrobot/libecrobot.a(flash_loader.oram)
systick_isr_C                                     /home/nxtOSEK/ecrobot/../ecrobot/libecrobot.a(systick.oram)
                                                  build/config/at91sam7s-gnu/irq.oram
systick_isr_C1                                    build/syslib/at91sam7s-gnu/lego_nxt/hw_sys_timer.oram
                                                  build/config/at91sam7s-gnu/irq.oram
systick_isr_entry                                 build/config/at91sam7s-gnu/irq.oram
                                                  /home/nxtOSEK/ecrobot/../ecrobot/libecrobot.a(systick.oram)
systick_low_priority_C                            /home/nxtOSEK/ecrobot/../ecrobot/libecrobot.a(systick.oram)
                                                  build/syslib/at91sam7s-gnu/lego_nxt/hw_sys_timer.oram
systick_low_priority_entry                        build/config/at91sam7s-gnu/irq.oram
                                                  /home/nxtOSEK/ecrobot/../ecrobot/libecrobot.a(systick.oram)
systick_resume                                    /home/nxtOSEK/ecrobot/../ecrobot/libecrobot.a(systick.oram)
                                                  /home/nxtOSEK/ecrobot/../ecrobot/libecrobot.a(flashprog.oram)
systick_suspend                                   /home/nxtOSEK/ecrobot/../ecrobot/libecrobot.a(systick.oram)
                                                  /home/nxtOSEK/ecrobot/../ecrobot/libecrobot.a(flashprog.oram)
systick_test                                      /home/nxtOSEK/ecrobot/../ecrobot/libecrobot.a(systick.oram)
systick_wait_ms                                   /home/nxtOSEK/ecrobot/../ecrobot/libecrobot.a(systick.oram)
                                                  /home/nxtOSEK/ecrobot/../ecrobot/libecrobot.a(flashprog.oram)
                                                  /home/nxtOSEK/ecrobot/../ecrobot/libecrobot.a(flash_loader.oram)
                                                  /home/nxtOSEK/ecrobot/../ecrobot/libecrobot.a(nxt_lcd.oram)
                                                  /home/nxtOSEK/ecrobot/../ecrobot/libecrobot.a(bt.oram)
                                                  /home/nxtOSEK/ecrobot/../ecrobot/libecrobot.a(display.oram)
                                                  /home/nxtOSEK/ecrobot/../ecrobot/libecrobot.a(udp.oram)
                                                  /home/nxtOSEK/ecrobot/../ecrobot/libecrobot.a(colorsensor.o)
                                                  /home/nxtOSEK/ecrobot/../ecrobot/libecrobot++.a(Clock.o)
                                                  build/ecrobot.o
                                                  build/ecrobot_base.o
                                                  build/ecrobot_bluetooth.o
systick_wait_ns                                   /home/nxtOSEK/ecrobot/../ecrobot/libecrobot.a(systick.oram)
                                                  /home/nxtOSEK/ecrobot/../ecrobot/libecrobot.a(twi.oram)
tail                                              build/Robot.o
task_initialize                                   build/kernel/task.o
                                                  build/./kernel_cfg.o
tcb_actcnt                                        build/./kernel_cfg.o
                                                  build/kernel/task_manage.o
                                                  build/kernel/task.o
tcb_curevt                                        build/./kernel_cfg.o
                                                  build/kernel/task.o
                                                  build/kernel/event.o
tcb_curpri                                        build/config/at91sam7s-gnu/cpu_support.oram
                                                  build/./kernel_cfg.o
                                                  build/kernel/task_manage.o
                                                  build/kernel/task.o
                                                  build/kernel/resource.o
                                                  build/kernel/event.o
tcb_lastres                                       build/./kernel_cfg.o
                                                  build/kernel/task_manage.o
                                                  build/kernel/task.o
                                                  build/kernel/resource.o
                                                  build/kernel/event.o
tcb_next                                          build/./kernel_cfg.o
                                                  build/kernel/task.o
tcb_tstat                                         build/./kernel_cfg.o
                                                  build/kernel/task_manage.o
                                                  build/kernel/task.o
                                                  build/kernel/event.o
tcb_waievt                                        build/./kernel_cfg.o
                                                  build/kernel/task.o
                                                  build/kernel/event.o
tcxb_pc                                           build/config/at91sam7s-gnu/cpu_support.oram
                                                  build/./kernel_cfg.o
                                                  build/kernel/task.o
tcxb_sp                                           build/config/at91sam7s-gnu/cpu_support.oram
                                                  build/./kernel_cfg.o
                                                  build/kernel/task.o
terminate_flash                                   /home/nxtOSEK/ecrobot/../ecrobot/libecrobot.a(flash_loader.oram)
tinib_autoact                                     build/./kernel_cfg.o
                                                  build/kernel/task.o
tinib_exepri                                      build/./kernel_cfg.o
                                                  build/config/at91sam7s-gnu/cpu_support.oram
                                                  build/kernel/task_manage.o
                                                  build/kernel/event.o
tinib_inipri                                      build/./kernel_cfg.o
                                                  build/kernel/task_manage.o
                                                  build/kernel/task.o
                                                  build/kernel/resource.o
                                                  build/kernel/event.o
tinib_maxact                                      build/./kernel_cfg.o
                                                  build/kernel/task_manage.o
tinib_stk                                         build/./kernel_cfg.o
                                                  build/kernel/task.o
tinib_stksz                                       build/./kernel_cfg.o
                                                  build/kernel/task.o
tinib_task                                        build/./kernel_cfg.o
                                                  build/config/at91sam7s-gnu/cpu_support.oram
tnum_alarm                                        build/./kernel_cfg.o
                                                  build/kernel/alarm.o
tnum_counter                                      build/./kernel_cfg.o
                                                  build/kernel/alarm.o
tnum_exttask                                      build/./kernel_cfg.o
                                                  build/kernel/task.o
                                                  build/kernel/event.o
tnum_isr2                                         build/./kernel_cfg.o
                                                  build/kernel/interrupt.o
tnum_resource                                     build/./kernel_cfg.o
                                                  build/kernel/resource.o
tnum_task                                         build/./kernel_cfg.o
                                                  build/kernel/task_manage.o
                                                  build/kernel/task.o
                                                  build/kernel/event.o
touch                                             build/Robot.o
twi_init                                          /home/nxtOSEK/ecrobot/../ecrobot/libecrobot.a(twi.oram)
                                                  /home/nxtOSEK/ecrobot/../ecrobot/libecrobot.a(nxt_avr.oram)
twi_isr_C                                         /home/nxtOSEK/ecrobot/../ecrobot/libecrobot.a(twi.oram)
                                                  build/config/at91sam7s-gnu/irq.oram
twi_isr_entry                                     build/config/at91sam7s-gnu/irq.oram
                                                  /home/nxtOSEK/ecrobot/../ecrobot/libecrobot.a(twi.oram)
twi_reset                                         /home/nxtOSEK/ecrobot/../ecrobot/libecrobot.a(twi.oram)
twi_start_read                                    /home/nxtOSEK/ecrobot/../ecrobot/libecrobot.a(twi.oram)
                                                  /home/nxtOSEK/ecrobot/../ecrobot/libecrobot.a(nxt_avr.oram)
twi_start_write                                   /home/nxtOSEK/ecrobot/../ecrobot/libecrobot.a(twi.oram)
                                                  /home/nxtOSEK/ecrobot/../ecrobot/libecrobot.a(nxt_avr.oram)
twi_status                                        /home/nxtOSEK/ecrobot/../ecrobot/libecrobot.a(twi.oram)
                                                  /home/nxtOSEK/ecrobot/../ecrobot/libecrobot.a(flashprog.oram)
                                                  /home/nxtOSEK/ecrobot/../ecrobot/libecrobot.a(nxt_avr.oram)
uart                                              /home/nxtOSEK/ecrobot/../ecrobot/libecrobot.a(uart.oram)
uart_CheckBreak                                   /home/nxtOSEK/ecrobot/../ecrobot/libecrobot.a(uart.oram)
uart_clear_break                                  /home/nxtOSEK/ecrobot/../ecrobot/libecrobot.a(uart.oram)
uart_close                                        /home/nxtOSEK/ecrobot/../ecrobot/libecrobot.a(uart.oram)
uart_get_byte                                     /home/nxtOSEK/ecrobot/../ecrobot/libecrobot.a(uart.oram)
uart_init                                         /home/nxtOSEK/ecrobot/../ecrobot/libecrobot.a(uart.oram)
uart_isr_C_0                                      /home/nxtOSEK/ecrobot/../ecrobot/libecrobot.a(uart.oram)
                                                  build/config/at91sam7s-gnu/irq.oram
uart_isr_C_1                                      /home/nxtOSEK/ecrobot/../ecrobot/libecrobot.a(uart.oram)
                                                  build/config/at91sam7s-gnu/irq.oram
uart_isr_entry_0                                  build/config/at91sam7s-gnu/irq.oram
                                                  /home/nxtOSEK/ecrobot/../ecrobot/libecrobot.a(uart.oram)
uart_isr_entry_1                                  build/config/at91sam7s-gnu/irq.oram
uart_put_byte                                     /home/nxtOSEK/ecrobot/../ecrobot/libecrobot.a(uart.oram)
uart_put_str                                      /home/nxtOSEK/ecrobot/../ecrobot/libecrobot.a(uart.oram)
uart_set_break                                    /home/nxtOSEK/ecrobot/../ecrobot/libecrobot.a(uart.oram)
uart_us0_init_irq                                 /home/nxtOSEK/ecrobot/../ecrobot/libecrobot.a(uart.oram)
uart_us0_interrupts_enable                        /home/nxtOSEK/ecrobot/../ecrobot/libecrobot.a(uart.oram)
udp_disable                                       /home/nxtOSEK/ecrobot/../ecrobot/libecrobot.a(udp.oram)
                                                  /home/nxtOSEK/ecrobot/../ecrobot/libecrobot.a(ecrobot_usb.o)
udp_enable                                        /home/nxtOSEK/ecrobot/../ecrobot/libecrobot.a(udp.oram)
                                                  /home/nxtOSEK/ecrobot/../ecrobot/libecrobot.a(ecrobot_usb.o)
udp_init                                          /home/nxtOSEK/ecrobot/../ecrobot/libecrobot.a(udp.oram)
                                                  /home/nxtOSEK/ecrobot/../ecrobot/libecrobot.a(ecrobot_usb.o)
udp_isr_C                                         /home/nxtOSEK/ecrobot/../ecrobot/libecrobot.a(udp.oram)
                                                  build/config/at91sam7s-gnu/irq.oram
udp_isr_entry                                     build/config/at91sam7s-gnu/irq.oram
                                                  /home/nxtOSEK/ecrobot/../ecrobot/libecrobot.a(udp.oram)
udp_read                                          /home/nxtOSEK/ecrobot/../ecrobot/libecrobot.a(udp.oram)
                                                  /home/nxtOSEK/ecrobot/../ecrobot/libecrobot.a(ecrobot_usb.o)
udp_reset                                         /home/nxtOSEK/ecrobot/../ecrobot/libecrobot.a(udp.oram)
udp_set_name                                      /home/nxtOSEK/ecrobot/../ecrobot/libecrobot.a(udp.oram)
                                                  /home/nxtOSEK/ecrobot/../ecrobot/libecrobot.a(ecrobot_usb.o)
udp_set_serialno                                  /home/nxtOSEK/ecrobot/../ecrobot/libecrobot.a(udp.oram)
                                                  /home/nxtOSEK/ecrobot/../ecrobot/libecrobot.a(ecrobot_usb.o)
udp_status                                        /home/nxtOSEK/ecrobot/../ecrobot/libecrobot.a(udp.oram)
                                                  /home/nxtOSEK/ecrobot/../ecrobot/libecrobot.a(ecrobot_usb.o)
udp_write                                         /home/nxtOSEK/ecrobot/../ecrobot/libecrobot.a(udp.oram)
                                                  /home/nxtOSEK/ecrobot/../ecrobot/libecrobot.a(ecrobot_usb.o)
undef_handler                                     build/ecrobot_init.o
                                                  build/nxtvm/platform/nxt/vectors.o
                                                  build/nxtvm/platform/nxt/vectors.o
unset_digi0                                       /home/nxtOSEK/ecrobot/../ecrobot/libecrobot.a(sensors.oram)
                                                  /home/nxtOSEK/ecrobot/../ecrobot/libecrobot.a(ecrobot_interface.o)
                                                  /home/nxtOSEK/ecrobot/../ecrobot/libecrobot++.a(LightSensor.o)
unset_digi1                                       /home/nxtOSEK/ecrobot/../ecrobot/libecrobot.a(sensors.oram)
user_1ms_isr_type2                                build/Driver.o
                                                  build/syslib/at91sam7s-gnu/lego_nxt/hw_sys_timer.oram
vtable for ControlMission_Posture                 build/Driver.o
vtable for ControlMission_Speed                   build/Driver.o
vtable for ControlMission_SpeedPID                build/Driver.o
vtable for ControlMission_Transition              build/Driver.o
vtable for DetectionMission_Sonar                 build/Driver.o
vtable for DetectionMission_Time                  build/Driver.o
vtable for Driver                                 build/Driver.o
vtable for Mission                                build/Mission.o
vtable for Mission_TailStraight                   build/Driver.o
vtable for RobotObserver                          build/Driver.o
vtable for ecrobot::GyroSensor                    build/Robot.o
                                                  /home/nxtOSEK/ecrobot/../ecrobot/libecrobot++.a(GyroSensor.o)
vtable for ecrobot::I2c                           /home/nxtOSEK/ecrobot/../ecrobot/libecrobot++.a(I2c.o)
vtable for ecrobot::LightSensor                   /home/nxtOSEK/ecrobot/../ecrobot/libecrobot++.a(LightSensor.o)
vtable for ecrobot::Sensor                        build/Robot.o
                                                  /home/nxtOSEK/ecrobot/../ecrobot/libecrobot++.a(TouchSensor.o)
                                                  /home/nxtOSEK/ecrobot/../ecrobot/libecrobot++.a(LightSensor.o)
                                                  /home/nxtOSEK/ecrobot/../ecrobot/libecrobot++.a(GyroSensor.o)
vtable for ecrobot::SonarSensor                   build/Robot.o
                                                  /home/nxtOSEK/ecrobot/../ecrobot/libecrobot++.a(SonarSensor.o)
vtable for ecrobot::TouchSensor                   build/Robot.o
                                                  /home/nxtOSEK/ecrobot/../ecrobot/libecrobot++.a(TouchSensor.o)
